libsioclient.so.1:_ZN11websocketpp10connectionINS_6config11asio_clientEE11write_frameEv
libsioclient.so.1:_ZN11websocketpp10connectionINS_6config11asio_clientEE16handle_terminateENS3_16terminate_statusERKSt10error_code
libsioclient.so.1:_ZN11websocketpp10connectionINS_6config11asio_clientEE17handle_read_frameERKSt10error_codem
libsioclient.so.1:_ZN11websocketpp10connectionINS_6config11asio_clientEE18handle_write_frameERKSt10error_code
libsioclient.so.1:_ZN11websocketpp10connectionINS_6config11asio_clientEE21handle_read_handshakeERKSt10error_codem
libsioclient.so.1:_ZN11websocketpp10connectionINS_6config11asio_clientEE21handle_transport_initERKSt10error_code
libsioclient.so.1:_ZN11websocketpp10connectionINS_6config11asio_clientEE24handle_send_http_requestERKSt10error_code
libsioclient.so.1:_ZN11websocketpp10connectionINS_6config11asio_clientEE25handle_read_http_responseERKSt10error_codem
libsioclient.so.1:_ZN11websocketpp10connectionINS_6config11asio_clientEE26handle_write_http_responseERKSt10error_code
libsioclient.so.1:_ZN11websocketpp10connectionINS_6config11asio_clientEE29handle_open_handshake_timeoutERKSt10error_code
libsioclient.so.1:_ZN11websocketpp10connectionINS_6config11asio_clientEE30handle_close_handshake_timeoutERKSt10error_code
libsioclient.so.1:_ZN11websocketpp4http17is_not_token_charEh
libsioclient.so.1:_ZN11websocketpp4http22is_not_whitespace_charEh
libsioclient.so.1:_ZN11websocketpp6clientINS_6config11asio_clientEE14handle_connectESt10shared_ptrINS_10connectionIS2_EEERKSt10error_code
libsioclient.so.1:_ZN11websocketpp9transport4asio10connectionINS_6config11asio_client16transport_configEE12handle_timerESt10shared_ptrIN4asio20basic_waitable_timerINSt6chrono3_V212steady_clockENS8_11wait_traitsISC_EENS8_15any_io_executorEEEESt8functionIFvRKSt10error_codeEESL_
libsioclient.so.1:_ZN11websocketpp9transport4asio10connectionINS_6config11asio_client16transport_configEE15handle_pre_initESt8functionIFvRKSt10error_codeEESA_
libsioclient.so.1:_ZN11websocketpp9transport4asio10connectionINS_6config11asio_client16transport_configEE16handle_post_initESt10shared_ptrIN4asio20basic_waitable_timerINSt6chrono3_V212steady_clockENS8_11wait_traitsISC_EENS8_15any_io_executorEEEESt8functionIFvRKSt10error_codeEESL_
libsioclient.so.1:_ZN11websocketpp9transport4asio10connectionINS_6config11asio_client16transport_configEE17handle_async_readESt8functionIFvRKSt10error_codemEESA_m
libsioclient.so.1:_ZN11websocketpp9transport4asio10connectionINS_6config11asio_client16transport_configEE17handle_proxy_readESt8functionIFvRKSt10error_codeEESA_m
libsioclient.so.1:_ZN11websocketpp9transport4asio10connectionINS_6config11asio_client16transport_configEE18handle_async_writeESt8functionIFvRKSt10error_codeEESA_m
libsioclient.so.1:_ZN11websocketpp9transport4asio10connectionINS_6config11asio_client16transport_configEE18handle_proxy_writeESt8functionIFvRKSt10error_codeEESA_
libsioclient.so.1:_ZN11websocketpp9transport4asio10connectionINS_6config11asio_client16transport_configEE20handle_proxy_timeoutESt8functionIFvRKSt10error_codeEESA_
libsioclient.so.1:_ZN11websocketpp9transport4asio10connectionINS_6config11asio_client16transport_configEE21handle_async_shutdownESt10shared_ptrIN4asio20basic_waitable_timerINSt6chrono3_V212steady_clockENS8_11wait_traitsISC_EENS8_15any_io_executorEEEESt8functionIFvRKSt10error_codeEESL_
libsioclient.so.1:_ZN11websocketpp9transport4asio10connectionINS_6config11asio_client16transport_configEE24handle_post_init_timeoutESt10shared_ptrIN4asio20basic_waitable_timerINSt6chrono3_V212steady_clockENS8_11wait_traitsISC_EENS8_15any_io_executorEEEESt8functionIFvRKSt10error_codeEESL_
libsioclient.so.1:_ZN11websocketpp9transport4asio10connectionINS_6config11asio_client16transport_configEE29handle_async_shutdown_timeoutESt10shared_ptrIN4asio20basic_waitable_timerINSt6chrono3_V212steady_clockENS8_11wait_traitsISC_EENS8_15any_io_executorEEEESt8functionIFvRKSt10error_codeEESL_
libsioclient.so.1:_ZN11websocketpp9transport4asio8endpointINS_6config11asio_client16transport_configEE14handle_connectESt10shared_ptrINS1_10connectionIS5_EEES7_IN4asio20basic_waitable_timerINSt6chrono3_V212steady_clockENSB_11wait_traitsISF_EENSB_15any_io_executorEEEESt8functionIFvRKSt10error_codeEESO_
libsioclient.so.1:_ZN11websocketpp9transport4asio8endpointINS_6config11asio_client16transport_configEE14handle_resolveESt10shared_ptrINS1_10connectionIS5_EEES7_IN4asio20basic_waitable_timerINSt6chrono3_V212steady_clockENSB_11wait_traitsISF_EENSB_15any_io_executorEEEESt8functionIFvRKSt10error_codeEESO_NSB_2ip23basic_resolver_iteratorINSR_3tcpEEE
libsioclient.so.1:_ZN11websocketpp9transport4asio8endpointINS_6config11asio_client16transport_configEE22handle_connect_timeoutESt10shared_ptrINS1_10connectionIS5_EEES7_IN4asio20basic_waitable_timerINSt6chrono3_V212steady_clockENSB_11wait_traitsISF_EENSB_15any_io_executorEEEESt8functionIFvRKSt10error_codeEESO_
libsioclient.so.1:_ZN11websocketpp9transport4asio8endpointINS_6config11asio_client16transport_configEE22handle_resolve_timeoutESt10shared_ptrIN4asio20basic_waitable_timerINSt6chrono3_V212steady_clockENS8_11wait_traitsISC_EENS8_15any_io_executorEEEESt8functionIFvRKSt10error_codeEESL_
libsioclient.so.1:_ZN3sio11client_impl10close_implERKtRKNSt7__cxx1112basic_stringIcSt11char_traitsIcESaIcEEE
libsioclient.so.1:_ZN3sio11client_impl10on_messageESt8weak_ptrIvESt10shared_ptrIN11websocketpp14message_buffer7messageINS5_5alloc15con_msg_managerEEEE
libsioclient.so.1:_ZN3sio11client_impl10sync_closeEv
libsioclient.so.1:_ZN3sio11client_impl12clear_timersEv
libsioclient.so.1:_ZN3sio11client_impl12connect_implERKNSt7__cxx1112basic_stringIcSt11char_traitsIcESaIcEEES8_
libsioclient.so.1:_ZN3sio11client_impl12on_handshakeERKSt10shared_ptrINS_7messageEE
libsioclient.so.1:_ZN3sio11client_impl12reset_statesEv
libsioclient.so.1:_ZN3sio11client_impl12timeout_pongERKSt10error_code
libsioclient.so.1:_ZN3sio11client_impl13remove_socketERKNSt7__cxx1112basic_stringIcSt11char_traitsIcESaIcEEE
libsioclient.so.1:_ZN3sio11client_impl14get_io_serviceEv
libsioclient.so.1:_ZN3sio11client_impl14set_logs_quietEv
libsioclient.so.1:_ZN3sio11client_impl16on_socket_closedERKNSt7__cxx1112basic_stringIcSt11char_traitsIcESaIcEEE
libsioclient.so.1:_ZN3sio11client_impl16on_socket_openedERKNSt7__cxx1112basic_stringIcSt11char_traitsIcESaIcEEE
libsioclient.so.1:_ZN3sio11client_impl16set_logs_defaultEv
libsioclient.so.1:_ZN3sio11client_impl16set_logs_verboseEv
libsioclient.so.1:_ZN3sio11client_impl17get_socket_lockedERKNSt7__cxx1112basic_stringIcSt11char_traitsIcESaIcEEE
libsioclient.so.1:_ZN3sio11client_impl17timeout_reconnectERKSt10error_code
libsioclient.so.1:_ZN3sio11client_impl19encode_query_stringERKNSt7__cxx1112basic_stringIcSt11char_traitsIcESaIcEEE
libsioclient.so.1:_ZN3sio11client_impl19sockets_invoke_voidEMNS_6socketEFvvE
libsioclient.so.1:_ZN3sio11client_impl4pingERKSt10error_code
libsioclient.so.1:_ZN3sio11client_impl4sendERNS_6packetE
libsioclient.so.1:_ZN3sio11client_impl5closeEv
libsioclient.so.1:_ZN3sio11client_impl6socketERKNSt7__cxx1112basic_stringIcSt11char_traitsIcESaIcEEE
libsioclient.so.1:_ZN3sio11client_impl7connectERKNSt7__cxx1112basic_stringIcSt11char_traitsIcESaIcEEERKSt3mapIS6_S6_St4lessIS6_ESaISt4pairIS7_S6_EEESH_RKSt10shared_ptrINS_7messageEE
libsioclient.so.1:_ZN3sio11client_impl7on_failESt8weak_ptrIvE
libsioclient.so.1:_ZN3sio11client_impl7on_openESt8weak_ptrIvE
libsioclient.so.1:_ZN3sio11client_impl7on_pingEv
libsioclient.so.1:_ZN3sio11client_impl8on_closeESt8weak_ptrIvE
libsioclient.so.1:_ZN3sio11client_impl8run_loopEv
libsioclient.so.1:_ZN3sio11client_impl9on_decodeERKNS_6packetE
libsioclient.so.1:_ZN3sio11client_impl9on_encodeEbRKSt10shared_ptrIKNSt7__cxx1112basic_stringIcSt11char_traitsIcESaIcEEEE
libsioclient.so.1:_ZN3sio11client_impl9send_implERKSt10shared_ptrIKNSt7__cxx1112basic_stringIcSt11char_traitsIcESaIcEEEEN11websocketpp5frame6opcode5valueE
libsioclient.so.1:_ZN3sio11client_implC1Ev
libsioclient.so.1:_ZN3sio11client_implC2Ev
libsioclient.so.1:_ZN3sio11client_implD1Ev
libsioclient.so.1:_ZN3sio11client_implD2Ev
libsioclient.so.1:_ZN3sio13event_adapter10adapt_funcERKSt8functionIFvRKNSt7__cxx1112basic_stringIcSt11char_traitsIcESaIcEEERKSt10shared_ptrINS_7messageEEbRNSB_4listEEERNS_5eventE
libsioclient.so.1:_ZN3sio14accept_messageERKNS_7messageERN9rapidjson12GenericValueINS3_4UTF8IcEENS3_19MemoryPoolAllocatorINS3_12CrtAllocatorEEEEERNS3_15GenericDocumentIS6_S9_S8_EERSt6vectorISt10shared_ptrIKNSt7__cxx1112basic_stringIcSt11char_traitsIcESaIcEEEESaISO_EE
libsioclient.so.1:_ZN3sio14packet_manager11put_payloadERKNSt7__cxx1112basic_stringIcSt11char_traitsIcESaIcEEE
libsioclient.so.1:_ZN3sio14packet_manager19set_decode_callbackERKSt8functionIFvRKNS_6packetEEE
libsioclient.so.1:_ZN3sio14packet_manager19set_encode_callbackERKSt8functionIFvbRKSt10shared_ptrIKNSt7__cxx1112basic_stringIcSt11char_traitsIcESaIcEEEEEE
libsioclient.so.1:_ZN3sio14packet_manager5resetEv
libsioclient.so.1:_ZN3sio18accept_int_messageERKNS_11int_messageERN9rapidjson12GenericValueINS3_4UTF8IcEENS3_19MemoryPoolAllocatorINS3_12CrtAllocatorEEEEE
libsioclient.so.1:_ZN3sio19accept_bool_messageERKNS_12bool_messageERN9rapidjson12GenericValueINS3_4UTF8IcEENS3_19MemoryPoolAllocatorINS3_12CrtAllocatorEEEEE
libsioclient.so.1:_ZN3sio19accept_null_messageERN9rapidjson12GenericValueINS0_4UTF8IcEENS0_19MemoryPoolAllocatorINS0_12CrtAllocatorEEEEE
libsioclient.so.1:_ZN3sio20accept_array_messageERKNS_13array_messageERN9rapidjson12GenericValueINS3_4UTF8IcEENS3_19MemoryPoolAllocatorINS3_12CrtAllocatorEEEEERNS3_15GenericDocumentIS6_S9_S8_EERSt6vectorISt10shared_ptrIKNSt7__cxx1112basic_stringIcSt11char_traitsIcESaIcEEEESaISO_EE
libsioclient.so.1:_ZN3sio21accept_binary_messageERKNS_14binary_messageERN9rapidjson12GenericValueINS3_4UTF8IcEENS3_19MemoryPoolAllocatorINS3_12CrtAllocatorEEEEERNS3_15GenericDocumentIS6_S9_S8_EERSt6vectorISt10shared_ptrIKNSt7__cxx1112basic_stringIcSt11char_traitsIcESaIcEEEESaISO_EE
libsioclient.so.1:_ZN3sio21accept_double_messageERKNS_14double_messageERN9rapidjson12GenericValueINS3_4UTF8IcEENS3_19MemoryPoolAllocatorINS3_12CrtAllocatorEEEEE
libsioclient.so.1:_ZN3sio21accept_object_messageERKNS_14object_messageERN9rapidjson12GenericValueINS3_4UTF8IcEENS3_19MemoryPoolAllocatorINS3_12CrtAllocatorEEEEERNS3_15GenericDocumentIS6_S9_S8_EERSt6vectorISt10shared_ptrIKNSt7__cxx1112basic_stringIcSt11char_traitsIcESaIcEEEESaISO_EE
libsioclient.so.1:_ZN3sio21accept_string_messageERKNS_14string_messageERN9rapidjson12GenericValueINS3_4UTF8IcEENS3_19MemoryPoolAllocatorINS3_12CrtAllocatorEEEEE
libsioclient.so.1:_ZN3sio5event15put_ack_messageERKNS_7message4listE
libsioclient.so.1:_ZN3sio6client10sync_closeEv
libsioclient.so.1:_ZN3sio6client14set_logs_quietEv
libsioclient.so.1:_ZN3sio6client16set_logs_defaultEv
libsioclient.so.1:_ZN3sio6client16set_logs_verboseEv
libsioclient.so.1:_ZN3sio6client17set_fail_listenerERKSt8functionIFvvEE
libsioclient.so.1:_ZN3sio6client17set_open_listenerERKSt8functionIFvvEE
libsioclient.so.1:_ZN3sio6client18set_close_listenerERKSt8functionIFvRKNS0_12close_reasonEEE
libsioclient.so.1:_ZN3sio6client19clear_con_listenersEv
libsioclient.so.1:_ZN3sio6client19set_reconnect_delayEj
libsioclient.so.1:_ZN3sio6client22clear_socket_listenersEv
libsioclient.so.1:_ZN3sio6client22set_reconnect_attemptsEi
libsioclient.so.1:_ZN3sio6client22set_reconnect_listenerERKSt8functionIFvjjEE
libsioclient.so.1:_ZN3sio6client23set_reconnect_delay_maxEj
libsioclient.so.1:_ZN3sio6client24set_socket_open_listenerERKSt8functionIFvRKNSt7__cxx1112basic_stringIcSt11char_traitsIcESaIcEEEEE
libsioclient.so.1:_ZN3sio6client25set_reconnecting_listenerERKSt8functionIFvvEE
libsioclient.so.1:_ZN3sio6client25set_socket_close_listenerERKSt8functionIFvRKNSt7__cxx1112basic_stringIcSt11char_traitsIcESaIcEEEEE
libsioclient.so.1:_ZN3sio6client5closeEv
libsioclient.so.1:_ZN3sio6client6socketERKNSt7__cxx1112basic_stringIcSt11char_traitsIcESaIcEEE
libsioclient.so.1:_ZN3sio6client7connectERKNSt7__cxx1112basic_stringIcSt11char_traitsIcESaIcEEE
libsioclient.so.1:_ZN3sio6client7connectERKNSt7__cxx1112basic_stringIcSt11char_traitsIcESaIcEEERKSt10shared_ptrINS_7messageEE
libsioclient.so.1:_ZN3sio6client7connectERKNSt7__cxx1112basic_stringIcSt11char_traitsIcESaIcEEERKSt3mapIS6_S6_St4lessIS6_ESaISt4pairIS7_S6_EEE
libsioclient.so.1:_ZN3sio6client7connectERKNSt7__cxx1112basic_stringIcSt11char_traitsIcESaIcEEERKSt3mapIS6_S6_St4lessIS6_ESaISt4pairIS7_S6_EEERKSt10shared_ptrINS_7messageEE
libsioclient.so.1:_ZN3sio6client7connectERKNSt7__cxx1112basic_stringIcSt11char_traitsIcESaIcEEERKSt3mapIS6_S6_St4lessIS6_ESaISt4pairIS7_S6_EEESH_
libsioclient.so.1:_ZN3sio6client7connectERKNSt7__cxx1112basic_stringIcSt11char_traitsIcESaIcEEERKSt3mapIS6_S6_St4lessIS6_ESaISt4pairIS7_S6_EEESH_RKSt10shared_ptrINS_7messageEE
libsioclient.so.1:_ZN3sio6clientC1Ev
libsioclient.so.1:_ZN3sio6clientC2Ev
libsioclient.so.1:_ZN3sio6clientD1Ev
libsioclient.so.1:_ZN3sio6clientD2Ev
libsioclient.so.1:_ZN3sio6packet10is_messageERKNSt7__cxx1112basic_stringIcSt11char_traitsIcESaIcEEE
libsioclient.so.1:_ZN3sio6packet12parse_bufferERKNSt7__cxx1112basic_stringIcSt11char_traitsIcESaIcEEE
libsioclient.so.1:_ZN3sio6packet15is_text_messageERKNSt7__cxx1112basic_stringIcSt11char_traitsIcESaIcEEE
libsioclient.so.1:_ZN3sio6packet17is_binary_messageERKNSt7__cxx1112basic_stringIcSt11char_traitsIcESaIcEEE
libsioclient.so.1:_ZN3sio6packet5parseERKNSt7__cxx1112basic_stringIcSt11char_traitsIcESaIcEEE
libsioclient.so.1:_ZN3sio6packet6acceptERNSt7__cxx1112basic_stringIcSt11char_traitsIcESaIcEEERSt6vectorISt10shared_ptrIKS6_ESaISB_EE
libsioclient.so.1:_ZN3sio6packetC1ENS0_10frame_typeE
libsioclient.so.1:_ZN3sio6packetC1ENS0_4typeERKNSt7__cxx1112basic_stringIcSt11char_traitsIcESaIcEEERKSt10shared_ptrINS_7messageEE
libsioclient.so.1:_ZN3sio6packetC1ERKNSt7__cxx1112basic_stringIcSt11char_traitsIcESaIcEEERKSt10shared_ptrINS_7messageEEib
libsioclient.so.1:_ZN3sio6packetC1Ev
libsioclient.so.1:_ZN3sio6packetC2ENS0_10frame_typeE
libsioclient.so.1:_ZN3sio6packetC2ENS0_4typeERKNSt7__cxx1112basic_stringIcSt11char_traitsIcESaIcEEERKSt10shared_ptrINS_7messageEE
libsioclient.so.1:_ZN3sio6packetC2ERKNSt7__cxx1112basic_stringIcSt11char_traitsIcESaIcEEERKSt10shared_ptrINS_7messageEEib
libsioclient.so.1:_ZN3sio6packetC2Ev
libsioclient.so.1:_ZN3sio6socket12on_connectedEv
libsioclient.so.1:_ZN3sio6socket13on_disconnectEv
libsioclient.so.1:_ZN3sio6socket17on_message_packetERKNS_6packetE
libsioclient.so.1:_ZN3sio6socket2onERKNSt7__cxx1112basic_stringIcSt11char_traitsIcESaIcEEERKSt8functionIFvRNS_5eventEEE
libsioclient.so.1:_ZN3sio6socket2onERKNSt7__cxx1112basic_stringIcSt11char_traitsIcESaIcEEERKSt8functionIFvS8_RKSt10shared_ptrINS_7messageEEbRNSB_4listEEE
libsioclient.so.1:_ZN3sio6socket3offERKNSt7__cxx1112basic_stringIcSt11char_traitsIcESaIcEEE
libsioclient.so.1:_ZN3sio6socket4emitERKNSt7__cxx1112basic_stringIcSt11char_traitsIcESaIcEEERKNS_7message4listERKSt8functionIFvSC_EE
libsioclient.so.1:_ZN3sio6socket4impl11send_packetERNS_6packetE
libsioclient.so.1:_ZN3sio6socket4impl12on_connectedEv
libsioclient.so.1:_ZN3sio6socket4impl12send_connectEv
libsioclient.so.1:_ZN3sio6socket4impl13on_disconnectEv
libsioclient.so.1:_ZN3sio6socket4impl15on_socketio_ackEiRKNS_7message4listE
libsioclient.so.1:_ZN3sio6socket4impl17on_message_packetERKNS_6packetE
libsioclient.so.1:_ZN3sio6socket4impl17on_socketio_errorERKSt10shared_ptrINS_7messageEE
libsioclient.so.1:_ZN3sio6socket4impl17on_socketio_eventERKNSt7__cxx1112basic_stringIcSt11char_traitsIcESaIcEEEiS9_ONS_7message4listE
libsioclient.so.1:_ZN3sio6socket4impl18timeout_connectionERKSt10error_code
libsioclient.so.1:_ZN3sio6socket4impl24get_bind_listener_lockedERKNSt7__cxx1112basic_stringIcSt11char_traitsIcESaIcEEE
libsioclient.so.1:_ZN3sio6socket4impl2onERKNSt7__cxx1112basic_stringIcSt11char_traitsIcESaIcEEERKSt8functionIFvRNS_5eventEEE
libsioclient.so.1:_ZN3sio6socket4impl2onERKNSt7__cxx1112basic_stringIcSt11char_traitsIcESaIcEEERKSt8functionIFvS9_RKSt10shared_ptrINS_7messageEEbRNSC_4listEEE
libsioclient.so.1:_ZN3sio6socket4impl3ackEiRKNSt7__cxx1112basic_stringIcSt11char_traitsIcESaIcEEERKNS_7message4listE
libsioclient.so.1:_ZN3sio6socket4impl3offERKNSt7__cxx1112basic_stringIcSt11char_traitsIcESaIcEEE
libsioclient.so.1:_ZN3sio6socket4impl4emitERKNSt7__cxx1112basic_stringIcSt11char_traitsIcESaIcEEERKNS_7message4listERKSt8functionIFvSD_EE
libsioclient.so.1:_ZN3sio6socket4impl5closeEv
libsioclient.so.1:_ZN3sio6socket4impl7off_allEv
libsioclient.so.1:_ZN3sio6socket4impl7on_openEv
libsioclient.so.1:_ZN3sio6socket4impl8on_closeEv
libsioclient.so.1:_ZN3sio6socket4impl8on_errorERKSt8functionIFvRKSt10shared_ptrINS_7messageEEEE
libsioclient.so.1:_ZN3sio6socket4impl9off_errorEv
libsioclient.so.1:_ZN3sio6socket4implC1EPNS_11client_implERKNSt7__cxx1112basic_stringIcSt11char_traitsIcESaIcEEERKSt10shared_ptrINS_7messageEE
libsioclient.so.1:_ZN3sio6socket4implC2EPNS_11client_implERKNSt7__cxx1112basic_stringIcSt11char_traitsIcESaIcEEERKSt10shared_ptrINS_7messageEE
libsioclient.so.1:_ZN3sio6socket4implD1Ev
libsioclient.so.1:_ZN3sio6socket4implD2Ev
libsioclient.so.1:_ZN3sio6socket5closeEv
libsioclient.so.1:_ZN3sio6socket7off_allEv
libsioclient.so.1:_ZN3sio6socket7on_openEv
libsioclient.so.1:_ZN3sio6socket8on_closeEv
libsioclient.so.1:_ZN3sio6socket8on_errorERKSt8functionIFvRKSt10shared_ptrINS_7messageEEEE
libsioclient.so.1:_ZN3sio6socket9off_errorEv
libsioclient.so.1:_ZN3sio6socketC1EPNS_11client_implERKNSt7__cxx1112basic_stringIcSt11char_traitsIcESaIcEEERKSt10shared_ptrINS_7messageEE
libsioclient.so.1:_ZN3sio6socketC2EPNS_11client_implERKNSt7__cxx1112basic_stringIcSt11char_traitsIcESaIcEEERKSt10shared_ptrINS_7messageEE
libsioclient.so.1:_ZN3sio6socketD1Ev
libsioclient.so.1:_ZN3sio6socketD2Ev
libsioclient.so.1:_ZN3sio9from_jsonERKN9rapidjson12GenericValueINS0_4UTF8IcEENS0_19MemoryPoolAllocatorINS0_12CrtAllocatorEEEEERKSt6vectorISt10shared_ptrIKNSt7__cxx1112basic_stringIcSt11char_traitsIcESaIcEEEESaISJ_EE
libsioclient.so.1:_ZN4asio6detail11executor_opINS0_17executor_functionESaIvENS0_19scheduler_operationEE11do_completeEPvPS4_RKSt10error_codem
libsioclient.so.1:_ZN4asio6detail12wait_handlerINS0_15wrapped_handlerINS_10io_context6strandESt5_BindIFMN11websocketpp9transport4asio10connectionINS6_6config11asio_client16transport_configEEEFvSt10shared_ptrINS_20basic_waitable_timerINSt6chrono3_V212steady_clockENS_11wait_traitsISI_EENS_15any_io_executorEEEESt8functionIFvRKSt10error_codeEESR_ESE_ISD_ESN_ST_St12_PlaceholderILi1EEEENS0_26is_continuation_if_runningEEESL_E11do_completeEPvPNS0_19scheduler_operationESR_m
libsioclient.so.1:_ZN4asio6detail12wait_handlerISt5_BindIFMN3sio11client_implEFvRKSt10error_codeEPS4_St12_PlaceholderILi1EEEENS_15any_io_executorEE11do_completeEPvPNS0_19scheduler_operationES7_m
libsioclient.so.1:_ZN4asio6detail12wait_handlerISt5_BindIFMN3sio6socket4implEFvRKSt10error_codeEPS5_St12_PlaceholderILi1EEEENS_15any_io_executorEE11do_completeEPvPNS0_19scheduler_operationES8_m
libsioclient.so.1:_ZN4asio6detail12wait_handlerISt5_BindIFMN3sio6socket4implEFvvEPS5_EENS_15any_io_executorEE11do_completeEPvPNS0_19scheduler_operationERKSt10error_codem
libsioclient.so.1:_ZN4asio6detail13epoll_reactor16descriptor_state11do_completeEPvPNS0_19scheduler_operationERKSt10error_codem
libsioclient.so.1:_ZN4asio6detail13epoll_reactor30call_post_immediate_completionEPNS0_19scheduler_operationEbPKv
libsioclient.so.1:_ZN4asio6detail14strand_service11do_completeEPvPNS0_19scheduler_operationERKSt10error_codem
libsioclient.so.1:_ZN4asio6detail16resolve_query_opINS_2ip3tcpENS0_15wrapped_handlerINS_10io_context6strandESt5_BindIFMN11websocketpp9transport4asio8endpointINS8_6config11asio_client16transport_configEEEFvSt10shared_ptrINSA_10connectionISE_EEESG_INS_20basic_waitable_timerINSt6chrono3_V212steady_clockENS_11wait_traitsISN_EENS_15any_io_executorEEEESt8functionIFvRKSt10error_codeEESW_NS2_23basic_resolver_iteratorIS3_EEEPSF_SJ_SS_SY_St12_PlaceholderILi1EES14_ILi2EEEENS0_26is_continuation_if_runningEEESQ_E11do_completeEPvPNS0_19scheduler_operationESW_m
libsioclient.so.1:_ZN4asio6detail16service_registry6createINS0_13epoll_reactorENS_17execution_contextEEEPNS4_7serviceEPv
libsioclient.so.1:_ZN4asio6detail16service_registry6createINS0_16resolver_serviceINS_2ip3tcpEEENS_10io_contextEEEPNS_17execution_context7serviceEPv
libsioclient.so.1:_ZN4asio6detail16service_registry6createINS0_22deadline_timer_serviceINS0_18chrono_time_traitsINSt6chrono3_V212steady_clockENS_11wait_traitsIS7_EEEEEENS_10io_contextEEEPNS_17execution_context7serviceEPv
libsioclient.so.1:_ZN4asio6detail16service_registry6createINS0_23reactive_socket_serviceINS_2ip3tcpEEENS_10io_contextEEEPNS_17execution_context7serviceEPv
libsioclient.so.1:_ZN4asio6detail17executor_function8completeINS0_7binder0INS0_7binder1INS0_19iterator_connect_opINS_2ip3tcpENS_15any_io_executorENS6_23basic_resolver_iteratorIS7_EENS0_25default_connect_conditionENS0_15wrapped_handlerINS_10io_context6strandESt5_BindIFMN11websocketpp9transport4asio8endpointINSG_6config11asio_client16transport_configEEEFvSt10shared_ptrINSI_10connectionISM_EEESO_INS_20basic_waitable_timerINSt6chrono3_V212steady_clockENS_11wait_traitsISV_EES8_EEESt8functionIFvRKSt10error_codeEES13_EPSN_SR_SZ_S15_St12_PlaceholderILi1EEEENS0_26is_continuation_if_runningEEEEES11_EEEESaIvEEEvPNS1_9impl_baseEb
libsioclient.so.1:_ZN4asio6detail17executor_function8completeINS0_7binder1INS0_15wrapped_handlerINS_10io_context6strandESt5_BindIFMN11websocketpp9transport4asio10connectionINS8_6config11asio_client16transport_configEEEFvSt10shared_ptrINS_20basic_waitable_timerINSt6chrono3_V212steady_clockENS_11wait_traitsISK_EENS_15any_io_executorEEEESt8functionIFvRKSt10error_codeEEST_ESG_ISF_ESP_SV_St12_PlaceholderILi1EEEENS0_26is_continuation_if_runningEEESR_EESaIvEEEvPNS1_9impl_baseEb
libsioclient.so.1:_ZN4asio6detail17executor_function8completeINS0_7binder1INS0_19iterator_connect_opINS_2ip3tcpENS_15any_io_executorENS5_23basic_resolver_iteratorIS6_EENS0_25default_connect_conditionENS0_15wrapped_handlerINS_10io_context6strandESt5_BindIFMN11websocketpp9transport4asio8endpointINSF_6config11asio_client16transport_configEEEFvSt10shared_ptrINSH_10connectionISL_EEESN_INS_20basic_waitable_timerINSt6chrono3_V212steady_clockENS_11wait_traitsISU_EES7_EEESt8functionIFvRKSt10error_codeEES12_EPSM_SQ_SY_S14_St12_PlaceholderILi1EEEENS0_26is_continuation_if_runningEEEEES10_EESaIvEEEvPNS1_9impl_baseEb
libsioclient.so.1:_ZN4asio6detail17executor_function8completeINS0_7binder1ISt5_BindIFMN3sio11client_implEFvRKSt10error_codeEPS6_St12_PlaceholderILi1EEEES7_EESaIvEEEvPNS1_9impl_baseEb
libsioclient.so.1:_ZN4asio6detail17executor_function8completeINS0_7binder1ISt5_BindIFMN3sio6socket4implEFvRKSt10error_codeEPS7_St12_PlaceholderILi1EEEES8_EESaIvEEEvPNS1_9impl_baseEb
libsioclient.so.1:_ZN4asio6detail17executor_function8completeINS0_7binder1ISt5_BindIFMN3sio6socket4implEFvvEPS7_EESt10error_codeEESaIvEEEvPNS1_9impl_baseEb
libsioclient.so.1:_ZN4asio6detail17executor_function8completeINS0_7binder2INS0_15wrapped_handlerINS_10io_context6strandESt5_BindIFMN11websocketpp9transport4asio8endpointINS8_6config11asio_client16transport_configEEEFvSt10shared_ptrINSA_10connectionISE_EEESG_INS_20basic_waitable_timerINSt6chrono3_V212steady_clockENS_11wait_traitsISN_EENS_15any_io_executorEEEESt8functionIFvRKSt10error_codeEESW_NS_2ip23basic_resolver_iteratorINSZ_3tcpEEEEPSF_SJ_SS_SY_St12_PlaceholderILi1EES16_ILi2EEEENS0_26is_continuation_if_runningEEESU_NSZ_22basic_resolver_resultsIS11_EEEESaIvEEEvPNS1_9impl_baseEb
libsioclient.so.1:_ZN4asio6detail17executor_function8completeINS0_7binder2INS0_29read_until_delim_string_op_v1INS_19basic_stream_socketINS_2ip3tcpENS_15any_io_executorEEENS_19basic_streambuf_refISaIcEEENS0_15wrapped_handlerINS_10io_context6strandESt5_BindIFMN11websocketpp9transport4asio10connectionINSH_6config11asio_client16transport_configEEEFvSt8functionIFvRKSt10error_codeEESS_mESt10shared_ptrISO_ESU_St12_PlaceholderILi1EESZ_ILi2EEEENS0_26is_continuation_if_runningEEEEESQ_mEESaIvEEEvPNS1_9impl_baseEb
libsioclient.so.1:_ZN4asio6detail17executor_function8completeINS0_7binder2INS0_7read_opINS_19basic_stream_socketINS_2ip3tcpENS_15any_io_executorEEENS_17mutable_buffers_1EPKNS_14mutable_bufferENS0_19transfer_at_least_tENS0_15wrapped_handlerINS_10io_context6strandEN11websocketpp9transport4asio20custom_alloc_handlerISt5_BindIFMNSK_10connectionINSI_6config11asio_client16transport_configEEEFvSt8functionIFvRKSt10error_codemEESV_mESt10shared_ptrISR_ESX_St12_PlaceholderILi1EES12_ILi2EEEEEENS0_26is_continuation_if_runningEEEEEST_mEESaIvEEEvPNS1_9impl_baseEb
libsioclient.so.1:_ZN4asio6detail17executor_function8completeINS0_7binder2INS0_8write_opINS_19basic_stream_socketINS_2ip3tcpENS_15any_io_executorEEESt6vectorINS_12const_bufferESaISB_EEN9__gnu_cxx17__normal_iteratorIPKSB_SD_EENS0_14transfer_all_tENS0_15wrapped_handlerINS_10io_context6strandEN11websocketpp9transport4asio20custom_alloc_handlerISt5_BindIFMNSP_10connectionINSN_6config11asio_client16transport_configEEEFvSt8functionIFvRKSt10error_codeEES10_mESt10shared_ptrISW_ES12_St12_PlaceholderILi1EES17_ILi2EEEEEENS0_26is_continuation_if_runningEEEEESY_mEESaIvEEEvPNS1_9impl_baseEb
libsioclient.so.1:_ZN4asio6detail17executor_function8completeINS0_7binder2INS0_8write_opINS_19basic_stream_socketINS_2ip3tcpENS_15any_io_executorEEESt6vectorINS_12const_bufferESaISB_EEN9__gnu_cxx17__normal_iteratorIPKSB_SD_EENS0_14transfer_all_tENS0_15wrapped_handlerINS_10io_context6strandESt5_BindIFMN11websocketpp9transport4asio10connectionINSO_6config11asio_client16transport_configEEEFvSt8functionIFvRKSt10error_codeEESZ_ESt10shared_ptrISV_ES11_St12_PlaceholderILi1EEEENS0_26is_continuation_if_runningEEEEESX_mEESaIvEEEvPNS1_9impl_baseEb
libsioclient.so.1:_ZN4asio6detail18completion_handlerINS0_15wrapped_handlerINS_10io_context6strandESt8functionIFvvEENS0_26is_continuation_if_runningEEENS3_19basic_executor_typeISaIvELm0EEEE11do_completeEPvPNS0_19scheduler_operationERKSt10error_codem
libsioclient.so.1:_ZN4asio6detail18completion_handlerINS0_17rewrapped_handlerINS0_15wrapped_handlerINS_10io_context6strandESt8functionIFvvEENS0_26is_continuation_if_runningEEES8_EENS4_19basic_executor_typeISaIvELm0EEEE11do_completeEPvPNS0_19scheduler_operationERKSt10error_codem
libsioclient.so.1:_ZN4asio6detail18completion_handlerINS0_17rewrapped_handlerINS0_7binder0INS0_7binder1INS0_19iterator_connect_opINS_2ip3tcpENS_15any_io_executorENS6_23basic_resolver_iteratorIS7_EENS0_25default_connect_conditionENS0_15wrapped_handlerINS_10io_context6strandESt5_BindIFMN11websocketpp9transport4asio8endpointINSG_6config11asio_client16transport_configEEEFvSt10shared_ptrINSI_10connectionISM_EEESO_INS_20basic_waitable_timerINSt6chrono3_V212steady_clockENS_11wait_traitsISV_EES8_EEESt8functionIFvRKSt10error_codeEES13_EPSN_SR_SZ_S15_St12_PlaceholderILi1EEEENS0_26is_continuation_if_runningEEEEES11_EEEES1C_EENSD_19basic_executor_typeISaIvELm0EEEE11do_completeEPvPNS0_19scheduler_operationES13_m
libsioclient.so.1:_ZN4asio6detail18completion_handlerINS0_17rewrapped_handlerINS0_7binder1INS0_15wrapped_handlerINS_10io_context6strandESt5_BindIFMN11websocketpp9transport4asio10connectionINS8_6config11asio_client16transport_configEEEFvSt10shared_ptrINS_20basic_waitable_timerINSt6chrono3_V212steady_clockENS_11wait_traitsISK_EENS_15any_io_executorEEEESt8functionIFvRKSt10error_codeEEST_ESG_ISF_ESP_SV_St12_PlaceholderILi1EEEENS0_26is_continuation_if_runningEEESR_EES12_EENS5_19basic_executor_typeISaIvELm0EEEE11do_completeEPvPNS0_19scheduler_operationEST_m
libsioclient.so.1:_ZN4asio6detail18completion_handlerINS0_17rewrapped_handlerINS0_7binder1INS0_19iterator_connect_opINS_2ip3tcpENS_15any_io_executorENS5_23basic_resolver_iteratorIS6_EENS0_25default_connect_conditionENS0_15wrapped_handlerINS_10io_context6strandESt5_BindIFMN11websocketpp9transport4asio8endpointINSF_6config11asio_client16transport_configEEEFvSt10shared_ptrINSH_10connectionISL_EEESN_INS_20basic_waitable_timerINSt6chrono3_V212steady_clockENS_11wait_traitsISU_EES7_EEESt8functionIFvRKSt10error_codeEES12_EPSM_SQ_SY_S14_St12_PlaceholderILi1EEEENS0_26is_continuation_if_runningEEEEES10_EES1B_EENSC_19basic_executor_typeISaIvELm0EEEE11do_completeEPvPNS0_19scheduler_operationES12_m
libsioclient.so.1:_ZN4asio6detail18completion_handlerINS0_17rewrapped_handlerINS0_7binder2INS0_15wrapped_handlerINS_10io_context6strandESt5_BindIFMN11websocketpp9transport4asio8endpointINS8_6config11asio_client16transport_configEEEFvSt10shared_ptrINSA_10connectionISE_EEESG_INS_20basic_waitable_timerINSt6chrono3_V212steady_clockENS_11wait_traitsISN_EENS_15any_io_executorEEEESt8functionIFvRKSt10error_codeEESW_NS_2ip23basic_resolver_iteratorINSZ_3tcpEEEEPSF_SJ_SS_SY_St12_PlaceholderILi1EES16_ILi2EEEENS0_26is_continuation_if_runningEEESU_NSZ_22basic_resolver_resultsIS11_EEEES1A_EENS5_19basic_executor_typeISaIvELm0EEEE11do_completeEPvPNS0_19scheduler_operationESW_m
libsioclient.so.1:_ZN4asio6detail18completion_handlerINS0_17rewrapped_handlerINS0_7binder2INS0_29read_until_delim_string_op_v1INS_19basic_stream_socketINS_2ip3tcpENS_15any_io_executorEEENS_19basic_streambuf_refISaIcEEENS0_15wrapped_handlerINS_10io_context6strandESt5_BindIFMN11websocketpp9transport4asio10connectionINSH_6config11asio_client16transport_configEEEFvSt8functionIFvRKSt10error_codeEESS_mESt10shared_ptrISO_ESU_St12_PlaceholderILi1EESZ_ILi2EEEENS0_26is_continuation_if_runningEEEEESQ_mEES13_EENSE_19basic_executor_typeISaIvELm0EEEE11do_completeEPvPNS0_19scheduler_operationESS_m
libsioclient.so.1:_ZN4asio6detail18completion_handlerINS0_17rewrapped_handlerINS0_7binder2INS0_7read_opINS_19basic_stream_socketINS_2ip3tcpENS_15any_io_executorEEENS_17mutable_buffers_1EPKNS_14mutable_bufferENS0_19transfer_at_least_tENS0_15wrapped_handlerINS_10io_context6strandEN11websocketpp9transport4asio20custom_alloc_handlerISt5_BindIFMNSK_10connectionINSI_6config11asio_client16transport_configEEEFvSt8functionIFvRKSt10error_codemEESV_mESt10shared_ptrISR_ESX_St12_PlaceholderILi1EES12_ILi2EEEEEENS0_26is_continuation_if_runningEEEEEST_mEES17_EENSG_19basic_executor_typeISaIvELm0EEEE11do_completeEPvPNS0_19scheduler_operationESV_m
libsioclient.so.1:_ZN4asio6detail18completion_handlerINS0_17rewrapped_handlerINS0_7binder2INS0_8write_opINS_19basic_stream_socketINS_2ip3tcpENS_15any_io_executorEEESt6vectorINS_12const_bufferESaISB_EEN9__gnu_cxx17__normal_iteratorIPKSB_SD_EENS0_14transfer_all_tENS0_15wrapped_handlerINS_10io_context6strandEN11websocketpp9transport4asio20custom_alloc_handlerISt5_BindIFMNSP_10connectionINSN_6config11asio_client16transport_configEEEFvSt8functionIFvRKSt10error_codeEES10_mESt10shared_ptrISW_ES12_St12_PlaceholderILi1EES17_ILi2EEEEEENS0_26is_continuation_if_runningEEEEESY_mEES1C_EENSL_19basic_executor_typeISaIvELm0EEEE11do_completeEPvPNS0_19scheduler_operationES10_m
libsioclient.so.1:_ZN4asio6detail18completion_handlerINS0_17rewrapped_handlerINS0_7binder2INS0_8write_opINS_19basic_stream_socketINS_2ip3tcpENS_15any_io_executorEEESt6vectorINS_12const_bufferESaISB_EEN9__gnu_cxx17__normal_iteratorIPKSB_SD_EENS0_14transfer_all_tENS0_15wrapped_handlerINS_10io_context6strandESt5_BindIFMN11websocketpp9transport4asio10connectionINSO_6config11asio_client16transport_configEEEFvSt8functionIFvRKSt10error_codeEESZ_ESt10shared_ptrISV_ES11_St12_PlaceholderILi1EEEENS0_26is_continuation_if_runningEEEEESX_mEES19_EENSL_19basic_executor_typeISaIvELm0EEEE11do_completeEPvPNS0_19scheduler_operationESZ_m
libsioclient.so.1:_ZN4asio6detail18completion_handlerINS0_7binder1ISt5_BindIFMN11websocketpp9transport4asio10connectionINS4_6config11asio_client16transport_configEEEFvSt10shared_ptrINS_20basic_waitable_timerINSt6chrono3_V212steady_clockENS_11wait_traitsISG_EENS_15any_io_executorEEEESt8functionIFvRKSt10error_codeEESP_ESC_ISB_ESL_SR_St12_PlaceholderILi1EEEESN_EENS_10io_context19basic_executor_typeISaIvELm0EEEE11do_completeEPvPNS0_19scheduler_operationESP_m
libsioclient.so.1:_ZN4asio6detail18completion_handlerINS0_7binder2IN11websocketpp9transport4asio20custom_alloc_handlerISt5_BindIFMNS5_10connectionINS3_6config11asio_client16transport_configEEEFvSt8functionIFvRKSt10error_codeEESG_mESt10shared_ptrISC_ESI_St12_PlaceholderILi1EESN_ILi2EEEEEESE_mEENS_10io_context19basic_executor_typeISaIvELm0EEEE11do_completeEPvPNS0_19scheduler_operationESG_m
libsioclient.so.1:_ZN4asio6detail18completion_handlerINS0_7binder2IN11websocketpp9transport4asio20custom_alloc_handlerISt5_BindIFMNS5_10connectionINS3_6config11asio_client16transport_configEEEFvSt8functionIFvRKSt10error_codemEESG_mESt10shared_ptrISC_ESI_St12_PlaceholderILi1EESN_ILi2EEEEEESE_mEENS_10io_context19basic_executor_typeISaIvELm0EEEE11do_completeEPvPNS0_19scheduler_operationESG_m
libsioclient.so.1:_ZN4asio6detail18completion_handlerINS0_7binder2ISt5_BindIFMN11websocketpp9transport4asio10connectionINS4_6config11asio_client16transport_configEEEFvSt8functionIFvRKSt10error_codeEESF_ESt10shared_ptrISB_ESH_St12_PlaceholderILi1EEEESD_mEENS_10io_context19basic_executor_typeISaIvELm0EEEE11do_completeEPvPNS0_19scheduler_operationESF_m
libsioclient.so.1:_ZN4asio6detail18completion_handlerINS0_7binder2ISt5_BindIFMN11websocketpp9transport4asio10connectionINS4_6config11asio_client16transport_configEEEFvSt8functionIFvRKSt10error_codeEESF_mESt10shared_ptrISB_ESH_St12_PlaceholderILi1EESM_ILi2EEEESD_mEENS_10io_context19basic_executor_typeISaIvELm0EEEE11do_completeEPvPNS0_19scheduler_operationESF_m
libsioclient.so.1:_ZN4asio6detail18completion_handlerINS0_7binder2ISt5_BindIFMN11websocketpp9transport4asio8endpointINS4_6config11asio_client16transport_configEEEFvSt10shared_ptrINS6_10connectionISA_EEESC_INS_20basic_waitable_timerINSt6chrono3_V212steady_clockENS_11wait_traitsISJ_EENS_15any_io_executorEEEESt8functionIFvRKSt10error_codeEESS_EPSB_SF_SO_SU_St12_PlaceholderILi1EEEESQ_NS_2ip23basic_resolver_iteratorINS12_3tcpEEEEENS_10io_context19basic_executor_typeISaIvELm0EEEE11do_completeEPvPNS0_19scheduler_operationESS_m
libsioclient.so.1:_ZN4asio6detail18completion_handlerINS0_7binder2ISt5_BindIFMN11websocketpp9transport4asio8endpointINS4_6config11asio_client16transport_configEEEFvSt10shared_ptrINS6_10connectionISA_EEESC_INS_20basic_waitable_timerINSt6chrono3_V212steady_clockENS_11wait_traitsISJ_EENS_15any_io_executorEEEESt8functionIFvRKSt10error_codeEESS_NS_2ip23basic_resolver_iteratorINSV_3tcpEEEEPSB_SF_SO_SU_St12_PlaceholderILi1EES12_ILi2EEEESQ_NSV_22basic_resolver_resultsISX_EEEENS_10io_context19basic_executor_typeISaIvELm0EEEE11do_completeEPvPNS0_19scheduler_operationESS_m
libsioclient.so.1:_ZN4asio6detail18completion_handlerISt5_BindIFMN3sio11client_implEFvRKNSt7__cxx1112basic_stringIcSt11char_traitsIcESaIcEEESC_EPS4_SA_SA_EENS_10io_context19basic_executor_typeISaIvELm0EEEE11do_completeEPvPNS0_19scheduler_operationERKSt10error_codem
libsioclient.so.1:_ZN4asio6detail18completion_handlerISt5_BindIFMN3sio11client_implEFvRKSt10shared_ptrIKNSt7__cxx1112basic_stringIcSt11char_traitsIcESaIcEEEEN11websocketpp5frame6opcode5valueEEPS4_SD_SJ_EENS_10io_context19basic_executor_typeISaIvELm0EEEE11do_completeEPvPNS0_19scheduler_operationERKSt10error_codem
libsioclient.so.1:_ZN4asio6detail18completion_handlerISt5_BindIFMN3sio11client_implEFvRKtRKNSt7__cxx1112basic_stringIcSt11char_traitsIcESaIcEEEEPS4_tPKcEENS_10io_context19basic_executor_typeISaIvELm0EEEE11do_completeEPvPNS0_19scheduler_operationERKSt10error_codem
libsioclient.so.1:_ZN4asio6detail18completion_handlerISt8functionIFvvEENS_10io_context19basic_executor_typeISaIvELm0EEEE11do_completeEPvPNS0_19scheduler_operationERKSt10error_codem
libsioclient.so.1:_ZN4asio6detail22executor_function_view8completeINS0_7binder0INS0_7binder1INS0_19iterator_connect_opINS_2ip3tcpENS_15any_io_executorENS6_23basic_resolver_iteratorIS7_EENS0_25default_connect_conditionENS0_15wrapped_handlerINS_10io_context6strandESt5_BindIFMN11websocketpp9transport4asio8endpointINSG_6config11asio_client16transport_configEEEFvSt10shared_ptrINSI_10connectionISM_EEESO_INS_20basic_waitable_timerINSt6chrono3_V212steady_clockENS_11wait_traitsISV_EES8_EEESt8functionIFvRKSt10error_codeEES13_EPSN_SR_SZ_S15_St12_PlaceholderILi1EEEENS0_26is_continuation_if_runningEEEEES11_EEEEEEvPv
libsioclient.so.1:_ZN4asio6detail22executor_function_view8completeINS0_7binder1INS0_15wrapped_handlerINS_10io_context6strandESt5_BindIFMN11websocketpp9transport4asio10connectionINS8_6config11asio_client16transport_configEEEFvSt10shared_ptrINS_20basic_waitable_timerINSt6chrono3_V212steady_clockENS_11wait_traitsISK_EENS_15any_io_executorEEEESt8functionIFvRKSt10error_codeEEST_ESG_ISF_ESP_SV_St12_PlaceholderILi1EEEENS0_26is_continuation_if_runningEEESR_EEEEvPv
libsioclient.so.1:_ZN4asio6detail22executor_function_view8completeINS0_7binder1INS0_19iterator_connect_opINS_2ip3tcpENS_15any_io_executorENS5_23basic_resolver_iteratorIS6_EENS0_25default_connect_conditionENS0_15wrapped_handlerINS_10io_context6strandESt5_BindIFMN11websocketpp9transport4asio8endpointINSF_6config11asio_client16transport_configEEEFvSt10shared_ptrINSH_10connectionISL_EEESN_INS_20basic_waitable_timerINSt6chrono3_V212steady_clockENS_11wait_traitsISU_EES7_EEESt8functionIFvRKSt10error_codeEES12_EPSM_SQ_SY_S14_St12_PlaceholderILi1EEEENS0_26is_continuation_if_runningEEEEES10_EEEEvPv
libsioclient.so.1:_ZN4asio6detail22executor_function_view8completeINS0_7binder1ISt5_BindIFMN3sio11client_implEFvRKSt10error_codeEPS6_St12_PlaceholderILi1EEEES7_EEEEvPv
libsioclient.so.1:_ZN4asio6detail22executor_function_view8completeINS0_7binder1ISt5_BindIFMN3sio6socket4implEFvRKSt10error_codeEPS7_St12_PlaceholderILi1EEEES8_EEEEvPv
libsioclient.so.1:_ZN4asio6detail22executor_function_view8completeINS0_7binder1ISt5_BindIFMN3sio6socket4implEFvvEPS7_EESt10error_codeEEEEvPv
libsioclient.so.1:_ZN4asio6detail22executor_function_view8completeINS0_7binder2INS0_15wrapped_handlerINS_10io_context6strandESt5_BindIFMN11websocketpp9transport4asio8endpointINS8_6config11asio_client16transport_configEEEFvSt10shared_ptrINSA_10connectionISE_EEESG_INS_20basic_waitable_timerINSt6chrono3_V212steady_clockENS_11wait_traitsISN_EENS_15any_io_executorEEEESt8functionIFvRKSt10error_codeEESW_NS_2ip23basic_resolver_iteratorINSZ_3tcpEEEEPSF_SJ_SS_SY_St12_PlaceholderILi1EES16_ILi2EEEENS0_26is_continuation_if_runningEEESU_NSZ_22basic_resolver_resultsIS11_EEEEEEvPv
libsioclient.so.1:_ZN4asio6detail22executor_function_view8completeINS0_7binder2INS0_29read_until_delim_string_op_v1INS_19basic_stream_socketINS_2ip3tcpENS_15any_io_executorEEENS_19basic_streambuf_refISaIcEEENS0_15wrapped_handlerINS_10io_context6strandESt5_BindIFMN11websocketpp9transport4asio10connectionINSH_6config11asio_client16transport_configEEEFvSt8functionIFvRKSt10error_codeEESS_mESt10shared_ptrISO_ESU_St12_PlaceholderILi1EESZ_ILi2EEEENS0_26is_continuation_if_runningEEEEESQ_mEEEEvPv
libsioclient.so.1:_ZN4asio6detail22executor_function_view8completeINS0_7binder2INS0_7read_opINS_19basic_stream_socketINS_2ip3tcpENS_15any_io_executorEEENS_17mutable_buffers_1EPKNS_14mutable_bufferENS0_19transfer_at_least_tENS0_15wrapped_handlerINS_10io_context6strandEN11websocketpp9transport4asio20custom_alloc_handlerISt5_BindIFMNSK_10connectionINSI_6config11asio_client16transport_configEEEFvSt8functionIFvRKSt10error_codemEESV_mESt10shared_ptrISR_ESX_St12_PlaceholderILi1EES12_ILi2EEEEEENS0_26is_continuation_if_runningEEEEEST_mEEEEvPv
libsioclient.so.1:_ZN4asio6detail22executor_function_view8completeINS0_7binder2INS0_8write_opINS_19basic_stream_socketINS_2ip3tcpENS_15any_io_executorEEESt6vectorINS_12const_bufferESaISB_EEN9__gnu_cxx17__normal_iteratorIPKSB_SD_EENS0_14transfer_all_tENS0_15wrapped_handlerINS_10io_context6strandEN11websocketpp9transport4asio20custom_alloc_handlerISt5_BindIFMNSP_10connectionINSN_6config11asio_client16transport_configEEEFvSt8functionIFvRKSt10error_codeEES10_mESt10shared_ptrISW_ES12_St12_PlaceholderILi1EES17_ILi2EEEEEENS0_26is_continuation_if_runningEEEEESY_mEEEEvPv
libsioclient.so.1:_ZN4asio6detail22executor_function_view8completeINS0_7binder2INS0_8write_opINS_19basic_stream_socketINS_2ip3tcpENS_15any_io_executorEEESt6vectorINS_12const_bufferESaISB_EEN9__gnu_cxx17__normal_iteratorIPKSB_SD_EENS0_14transfer_all_tENS0_15wrapped_handlerINS_10io_context6strandESt5_BindIFMN11websocketpp9transport4asio10connectionINSO_6config11asio_client16transport_configEEEFvSt8functionIFvRKSt10error_codeEESZ_ESt10shared_ptrISV_ES11_St12_PlaceholderILi1EEEENS0_26is_continuation_if_runningEEEEESX_mEEEEvPv
libsioclient.so.1:_ZN4asio6detail23reactive_socket_recv_opINS_17mutable_buffers_1ENS0_29read_until_delim_string_op_v1INS_19basic_stream_socketINS_2ip3tcpENS_15any_io_executorEEENS_19basic_streambuf_refISaIcEEENS0_15wrapped_handlerINS_10io_context6strandESt5_BindIFMN11websocketpp9transport4asio10connectionINSG_6config11asio_client16transport_configEEEFvSt8functionIFvRKSt10error_codeEESR_mESt10shared_ptrISN_EST_St12_PlaceholderILi1EESY_ILi2EEEENS0_26is_continuation_if_runningEEEEES7_E11do_completeEPvPNS0_19scheduler_operationESR_m
libsioclient.so.1:_ZN4asio6detail23reactive_socket_recv_opINS_17mutable_buffers_1ENS0_7read_opINS_19basic_stream_socketINS_2ip3tcpENS_15any_io_executorEEES2_PKNS_14mutable_bufferENS0_19transfer_at_least_tENS0_15wrapped_handlerINS_10io_context6strandEN11websocketpp9transport4asio20custom_alloc_handlerISt5_BindIFMNSI_10connectionINSG_6config11asio_client16transport_configEEEFvSt8functionIFvRKSt10error_codemEEST_mESt10shared_ptrISP_ESV_St12_PlaceholderILi1EES10_ILi2EEEEEENS0_26is_continuation_if_runningEEEEES7_E11do_completeEPvPNS0_19scheduler_operationEST_m
libsioclient.so.1:_ZN4asio6detail23reactive_socket_send_opINS0_16prepared_buffersINS_12const_bufferELm64EEENS0_8write_opINS_19basic_stream_socketINS_2ip3tcpENS_15any_io_executorEEESt6vectorIS3_SaIS3_EEN9__gnu_cxx17__normal_iteratorIPKS3_SD_EENS0_14transfer_all_tENS0_15wrapped_handlerINS_10io_context6strandEN11websocketpp9transport4asio20custom_alloc_handlerISt5_BindIFMNSP_10connectionINSN_6config11asio_client16transport_configEEEFvSt8functionIFvRKSt10error_codeEES10_mESt10shared_ptrISW_ES12_St12_PlaceholderILi1EES17_ILi2EEEEEENS0_26is_continuation_if_runningEEEEES9_E11do_completeEPvPNS0_19scheduler_operationES10_m
libsioclient.so.1:_ZN4asio6detail23reactive_socket_send_opINS0_16prepared_buffersINS_12const_bufferELm64EEENS0_8write_opINS_19basic_stream_socketINS_2ip3tcpENS_15any_io_executorEEESt6vectorIS3_SaIS3_EEN9__gnu_cxx17__normal_iteratorIPKS3_SD_EENS0_14transfer_all_tENS0_15wrapped_handlerINS_10io_context6strandESt5_BindIFMN11websocketpp9transport4asio10connectionINSO_6config11asio_client16transport_configEEEFvSt8functionIFvRKSt10error_codeEESZ_ESt10shared_ptrISV_ES11_St12_PlaceholderILi1EEEENS0_26is_continuation_if_runningEEEEES9_E11do_completeEPvPNS0_19scheduler_operationESZ_m
libsioclient.so.1:_ZN4asio6detail26reactive_socket_connect_opINS0_19iterator_connect_opINS_2ip3tcpENS_15any_io_executorENS3_23basic_resolver_iteratorIS4_EENS0_25default_connect_conditionENS0_15wrapped_handlerINS_10io_context6strandESt5_BindIFMN11websocketpp9transport4asio8endpointINSD_6config11asio_client16transport_configEEEFvSt10shared_ptrINSF_10connectionISJ_EEESL_INS_20basic_waitable_timerINSt6chrono3_V212steady_clockENS_11wait_traitsISS_EES5_EEESt8functionIFvRKSt10error_codeEES10_EPSK_SO_SW_S12_St12_PlaceholderILi1EEEENS0_26is_continuation_if_runningEEEEES5_E11do_completeEPvPNS0_19scheduler_operationES10_m
libsioclient.so.1:_ZN4asio6detail28reactive_socket_recv_op_baseINS_17mutable_buffers_1EE10do_performEPNS0_10reactor_opE
libsioclient.so.1:_ZN4asio6detail28reactive_socket_send_op_baseINS0_16prepared_buffersINS_12const_bufferELm64EEEE10do_performEPNS0_10reactor_opE
libsioclient.so.1:_ZN4asio6detail31reactive_socket_connect_op_base10do_performEPNS0_10reactor_opE
libsioclient.so.1:_ZN4asio6detail9scheduler16get_default_taskERNS_17execution_contextE
libsioclient.so.1:_ZN4asio9execution6detail17any_executor_base10execute_exINS_10io_context19basic_executor_typeISaIvELm0EEEEEvRKS2_ONS_6detail17executor_functionE
libsioclient.so.1:_ZN4asio9execution6detail17any_executor_base10execute_exINS_10io_context19basic_executor_typeISaIvELm4EEEEEvRKS2_ONS_6detail17executor_functionE
libsioclient.so.1:_ZN4asio9execution6detail17any_executor_base10require_fnINS0_12any_executorIJNS0_12context_as_tIRNS_17execution_contextEEENS1_8blocking7never_tILi0EEENS0_11prefer_onlyINS9_10possibly_tILi0EEEEENSC_INS1_16outstanding_work9tracked_tILi0EEEEENSC_INSG_11untracked_tILi0EEEEENSC_INS1_12relationship6fork_tILi0EEEEENSC_INSN_14continuation_tILi0EEEEEEEENS_10io_context19basic_executor_typeISaIvELm0EEES8_EET_PKvS11_
libsioclient.so.1:_ZN4asio9execution6detail17any_executor_base10require_fnINS0_12any_executorIJNS0_12context_as_tIRNS_17execution_contextEEENS1_8blocking7never_tILi0EEENS0_11prefer_onlyINS9_10possibly_tILi0EEEEENSC_INS1_16outstanding_work9tracked_tILi0EEEEENSC_INSG_11untracked_tILi0EEEEENSC_INS1_12relationship6fork_tILi0EEEEENSC_INSN_14continuation_tILi0EEEEEEEENS_10io_context19basic_executor_typeISaIvELm0EEESB_EET_PKvS11_
libsioclient.so.1:_ZN4asio9execution6detail17any_executor_base10require_fnINS0_12any_executorIJNS0_12context_as_tIRNS_17execution_contextEEENS1_8blocking7never_tILi0EEENS0_11prefer_onlyINS9_10possibly_tILi0EEEEENSC_INS1_16outstanding_work9tracked_tILi0EEEEENSC_INSG_11untracked_tILi0EEEEENSC_INS1_12relationship6fork_tILi0EEEEENSC_INSN_14continuation_tILi0EEEEEEEENS_10io_context19basic_executor_typeISaIvELm0EEESF_EET_PKvS11_
libsioclient.so.1:_ZN4asio9execution6detail17any_executor_base10require_fnINS0_12any_executorIJNS0_12context_as_tIRNS_17execution_contextEEENS1_8blocking7never_tILi0EEENS0_11prefer_onlyINS9_10possibly_tILi0EEEEENSC_INS1_16outstanding_work9tracked_tILi0EEEEENSC_INSG_11untracked_tILi0EEEEENSC_INS1_12relationship6fork_tILi0EEEEENSC_INSN_14continuation_tILi0EEEEEEEENS_10io_context19basic_executor_typeISaIvELm0EEESJ_EET_PKvS11_
libsioclient.so.1:_ZN4asio9execution6detail17any_executor_base10require_fnINS0_12any_executorIJNS0_12context_as_tIRNS_17execution_contextEEENS1_8blocking7never_tILi0EEENS0_11prefer_onlyINS9_10possibly_tILi0EEEEENSC_INS1_16outstanding_work9tracked_tILi0EEEEENSC_INSG_11untracked_tILi0EEEEENSC_INS1_12relationship6fork_tILi0EEEEENSC_INSN_14continuation_tILi0EEEEEEEENS_10io_context19basic_executor_typeISaIvELm0EEESM_EET_PKvS11_
libsioclient.so.1:_ZN4asio9execution6detail17any_executor_base10require_fnINS0_12any_executorIJNS0_12context_as_tIRNS_17execution_contextEEENS1_8blocking7never_tILi0EEENS0_11prefer_onlyINS9_10possibly_tILi0EEEEENSC_INS1_16outstanding_work9tracked_tILi0EEEEENSC_INSG_11untracked_tILi0EEEEENSC_INS1_12relationship6fork_tILi0EEEEENSC_INSN_14continuation_tILi0EEEEEEEENS_10io_context19basic_executor_typeISaIvELm0EEESQ_EET_PKvS11_
libsioclient.so.1:_ZN4asio9execution6detail17any_executor_base10require_fnINS0_12any_executorIJNS0_12context_as_tIRNS_17execution_contextEEENS1_8blocking7never_tILi0EEENS0_11prefer_onlyINS9_10possibly_tILi0EEEEENSC_INS1_16outstanding_work9tracked_tILi0EEEEENSC_INSG_11untracked_tILi0EEEEENSC_INS1_12relationship6fork_tILi0EEEEENSC_INSN_14continuation_tILi0EEEEEEEENS_10io_context19basic_executor_typeISaIvELm0EEEST_EET_PKvS11_
libsioclient.so.1:_ZN4asio9execution6detail17any_executor_base10require_fnINS0_12any_executorIJNS0_12context_as_tIRNS_17execution_contextEEENS1_8blocking7never_tILi0EEENS0_11prefer_onlyINS9_10possibly_tILi0EEEEENSC_INS1_16outstanding_work9tracked_tILi0EEEEENSC_INSG_11untracked_tILi0EEEEENSC_INS1_12relationship6fork_tILi0EEEEENSC_INSN_14continuation_tILi0EEEEEEEENS_10io_context19basic_executor_typeISaIvELm4EEES8_EET_PKvS11_
libsioclient.so.1:_ZN4asio9execution6detail17any_executor_base10require_fnINS0_12any_executorIJNS0_12context_as_tIRNS_17execution_contextEEENS1_8blocking7never_tILi0EEENS0_11prefer_onlyINS9_10possibly_tILi0EEEEENSC_INS1_16outstanding_work9tracked_tILi0EEEEENSC_INSG_11untracked_tILi0EEEEENSC_INS1_12relationship6fork_tILi0EEEEENSC_INSN_14continuation_tILi0EEEEEEEENS_10io_context19basic_executor_typeISaIvELm4EEESB_EET_PKvS11_
libsioclient.so.1:_ZN4asio9execution6detail17any_executor_base10require_fnINS0_12any_executorIJNS0_12context_as_tIRNS_17execution_contextEEENS1_8blocking7never_tILi0EEENS0_11prefer_onlyINS9_10possibly_tILi0EEEEENSC_INS1_16outstanding_work9tracked_tILi0EEEEENSC_INSG_11untracked_tILi0EEEEENSC_INS1_12relationship6fork_tILi0EEEEENSC_INSN_14continuation_tILi0EEEEEEEENS_10io_context19basic_executor_typeISaIvELm4EEESF_EET_PKvS11_
libsioclient.so.1:_ZN4asio9execution6detail17any_executor_base10require_fnINS0_12any_executorIJNS0_12context_as_tIRNS_17execution_contextEEENS1_8blocking7never_tILi0EEENS0_11prefer_onlyINS9_10possibly_tILi0EEEEENSC_INS1_16outstanding_work9tracked_tILi0EEEEENSC_INSG_11untracked_tILi0EEEEENSC_INS1_12relationship6fork_tILi0EEEEENSC_INSN_14continuation_tILi0EEEEEEEENS_10io_context19basic_executor_typeISaIvELm4EEESJ_EET_PKvS11_
libsioclient.so.1:_ZN4asio9execution6detail17any_executor_base10require_fnINS0_12any_executorIJNS0_12context_as_tIRNS_17execution_contextEEENS1_8blocking7never_tILi0EEENS0_11prefer_onlyINS9_10possibly_tILi0EEEEENSC_INS1_16outstanding_work9tracked_tILi0EEEEENSC_INSG_11untracked_tILi0EEEEENSC_INS1_12relationship6fork_tILi0EEEEENSC_INSN_14continuation_tILi0EEEEEEEENS_10io_context19basic_executor_typeISaIvELm4EEESM_EET_PKvS11_
libsioclient.so.1:_ZN4asio9execution6detail17any_executor_base10require_fnINS0_12any_executorIJNS0_12context_as_tIRNS_17execution_contextEEENS1_8blocking7never_tILi0EEENS0_11prefer_onlyINS9_10possibly_tILi0EEEEENSC_INS1_16outstanding_work9tracked_tILi0EEEEENSC_INSG_11untracked_tILi0EEEEENSC_INS1_12relationship6fork_tILi0EEEEENSC_INSN_14continuation_tILi0EEEEEEEENS_10io_context19basic_executor_typeISaIvELm4EEESQ_EET_PKvS11_
libsioclient.so.1:_ZN4asio9execution6detail17any_executor_base10require_fnINS0_12any_executorIJNS0_12context_as_tIRNS_17execution_contextEEENS1_8blocking7never_tILi0EEENS0_11prefer_onlyINS9_10possibly_tILi0EEEEENSC_INS1_16outstanding_work9tracked_tILi0EEEEENSC_INSG_11untracked_tILi0EEEEENSC_INS1_12relationship6fork_tILi0EEEEENSC_INSN_14continuation_tILi0EEEEEEEENS_10io_context19basic_executor_typeISaIvELm4EEEST_EET_PKvS11_
libsioclient.so.1:_ZN4asio9execution6detail17any_executor_base10require_fnINS0_12any_executorIJNS0_12context_as_tIRNS_17execution_contextEEENS1_8blocking7never_tILi0EEENS0_11prefer_onlyINS9_10possibly_tILi0EEEEENSC_INS1_16outstanding_work9tracked_tILi0EEEEENSC_INSG_11untracked_tILi0EEEEENSC_INS1_12relationship6fork_tILi0EEEEENSC_INSN_14continuation_tILi0EEEEEEEEvS8_EET_PKvSX_
libsioclient.so.1:_ZN4asio9execution6detail17any_executor_base10require_fnINS0_12any_executorIJNS0_12context_as_tIRNS_17execution_contextEEENS1_8blocking7never_tILi0EEENS0_11prefer_onlyINS9_10possibly_tILi0EEEEENSC_INS1_16outstanding_work9tracked_tILi0EEEEENSC_INSG_11untracked_tILi0EEEEENSC_INS1_12relationship6fork_tILi0EEEEENSC_INSN_14continuation_tILi0EEEEEEEEvSB_EET_PKvSX_
libsioclient.so.1:_ZN4asio9execution6detail17any_executor_base10require_fnINS0_12any_executorIJNS0_12context_as_tIRNS_17execution_contextEEENS1_8blocking7never_tILi0EEENS0_11prefer_onlyINS9_10possibly_tILi0EEEEENSC_INS1_16outstanding_work9tracked_tILi0EEEEENSC_INSG_11untracked_tILi0EEEEENSC_INS1_12relationship6fork_tILi0EEEEENSC_INSN_14continuation_tILi0EEEEEEEEvSF_EET_PKvSX_
libsioclient.so.1:_ZN4asio9execution6detail17any_executor_base10require_fnINS0_12any_executorIJNS0_12context_as_tIRNS_17execution_contextEEENS1_8blocking7never_tILi0EEENS0_11prefer_onlyINS9_10possibly_tILi0EEEEENSC_INS1_16outstanding_work9tracked_tILi0EEEEENSC_INSG_11untracked_tILi0EEEEENSC_INS1_12relationship6fork_tILi0EEEEENSC_INSN_14continuation_tILi0EEEEEEEEvSJ_EET_PKvSX_
libsioclient.so.1:_ZN4asio9execution6detail17any_executor_base10require_fnINS0_12any_executorIJNS0_12context_as_tIRNS_17execution_contextEEENS1_8blocking7never_tILi0EEENS0_11prefer_onlyINS9_10possibly_tILi0EEEEENSC_INS1_16outstanding_work9tracked_tILi0EEEEENSC_INSG_11untracked_tILi0EEEEENSC_INS1_12relationship6fork_tILi0EEEEENSC_INSN_14continuation_tILi0EEEEEEEEvSM_EET_PKvSX_
libsioclient.so.1:_ZN4asio9execution6detail17any_executor_base10require_fnINS0_12any_executorIJNS0_12context_as_tIRNS_17execution_contextEEENS1_8blocking7never_tILi0EEENS0_11prefer_onlyINS9_10possibly_tILi0EEEEENSC_INS1_16outstanding_work9tracked_tILi0EEEEENSC_INSG_11untracked_tILi0EEEEENSC_INS1_12relationship6fork_tILi0EEEEENSC_INSN_14continuation_tILi0EEEEEEEEvSQ_EET_PKvSX_
libsioclient.so.1:_ZN4asio9execution6detail17any_executor_base10require_fnINS0_12any_executorIJNS0_12context_as_tIRNS_17execution_contextEEENS1_8blocking7never_tILi0EEENS0_11prefer_onlyINS9_10possibly_tILi0EEEEENSC_INS1_16outstanding_work9tracked_tILi0EEEEENSC_INSG_11untracked_tILi0EEEEENSC_INS1_12relationship6fork_tILi0EEEEENSC_INSN_14continuation_tILi0EEEEEEEEvST_EET_PKvSX_
libsioclient.so.1:_ZN4asio9execution6detail17any_executor_base11copy_objectINS_10io_context19basic_executor_typeISaIvELm0EEEEEvRS2_RKS2_
libsioclient.so.1:_ZN4asio9execution6detail17any_executor_base11copy_objectINS_10io_context19basic_executor_typeISaIvELm4EEEEEvRS2_RKS2_
libsioclient.so.1:_ZN4asio9execution6detail17any_executor_base11move_objectINS_10io_context19basic_executor_typeISaIvELm0EEEEEvRS2_S8_
libsioclient.so.1:_ZN4asio9execution6detail17any_executor_base11move_objectINS_10io_context19basic_executor_typeISaIvELm4EEEEEvRS2_S8_
libsioclient.so.1:_ZN4asio9execution6detail17any_executor_base13target_objectINS_10io_context19basic_executor_typeISaIvELm0EEEEEPKvRKS2_
libsioclient.so.1:_ZN4asio9execution6detail17any_executor_base13target_objectINS_10io_context19basic_executor_typeISaIvELm4EEEEEPKvRKS2_
libsioclient.so.1:_ZN4asio9execution6detail17any_executor_base14destroy_objectINS_10io_context19basic_executor_typeISaIvELm0EEEEEvRS2_
libsioclient.so.1:_ZN4asio9execution6detail17any_executor_base14destroy_objectINS_10io_context19basic_executor_typeISaIvELm4EEEEEvRS2_
libsioclient.so.1:_ZN4asio9execution6detail17any_executor_base14target_type_exINS_10io_context19basic_executor_typeISaIvELm0EEEEERKSt9type_infov
libsioclient.so.1:_ZN4asio9execution6detail17any_executor_base14target_type_exINS_10io_context19basic_executor_typeISaIvELm4EEEEERKSt9type_infov
libsioclient.so.1:_ZN4asio9execution6detail17any_executor_base8equal_exINS_10io_context19basic_executor_typeISaIvELm0EEEEEbRKS2_S9_
libsioclient.so.1:_ZN4asio9execution6detail17any_executor_base8equal_exINS_10io_context19basic_executor_typeISaIvELm4EEEEEbRKS2_S9_
libsioclient.so.1:_ZN4asio9execution6detail17any_executor_base8query_fnINS_10io_context19basic_executor_typeISaIvELm0EEENS0_11prefer_onlyINS1_12relationship14continuation_tILi0EEEEEEEvPvPKvSF_
libsioclient.so.1:_ZN4asio9execution6detail17any_executor_base8query_fnINS_10io_context19basic_executor_typeISaIvELm0EEENS0_11prefer_onlyINS1_12relationship6fork_tILi0EEEEEEEvPvPKvSF_
libsioclient.so.1:_ZN4asio9execution6detail17any_executor_base8query_fnINS_10io_context19basic_executor_typeISaIvELm0EEENS0_11prefer_onlyINS1_16outstanding_work11untracked_tILi0EEEEEEEvPvPKvSF_
libsioclient.so.1:_ZN4asio9execution6detail17any_executor_base8query_fnINS_10io_context19basic_executor_typeISaIvELm0EEENS0_11prefer_onlyINS1_16outstanding_work9tracked_tILi0EEEEEEEvPvPKvSF_
libsioclient.so.1:_ZN4asio9execution6detail17any_executor_base8query_fnINS_10io_context19basic_executor_typeISaIvELm0EEENS0_11prefer_onlyINS1_8blocking10possibly_tILi0EEEEEEEvPvPKvSF_
libsioclient.so.1:_ZN4asio9execution6detail17any_executor_base8query_fnINS_10io_context19basic_executor_typeISaIvELm0EEENS0_12context_as_tIRNS_17execution_contextEEEEEvPvPKvSE_
libsioclient.so.1:_ZN4asio9execution6detail17any_executor_base8query_fnINS_10io_context19basic_executor_typeISaIvELm0EEENS1_8blocking7never_tILi0EEEEEvPvPKvSD_
libsioclient.so.1:_ZN4asio9execution6detail17any_executor_base8query_fnINS_10io_context19basic_executor_typeISaIvELm4EEENS0_11prefer_onlyINS1_12relationship14continuation_tILi0EEEEEEEvPvPKvSF_
libsioclient.so.1:_ZN4asio9execution6detail17any_executor_base8query_fnINS_10io_context19basic_executor_typeISaIvELm4EEENS0_11prefer_onlyINS1_12relationship6fork_tILi0EEEEEEEvPvPKvSF_
libsioclient.so.1:_ZN4asio9execution6detail17any_executor_base8query_fnINS_10io_context19basic_executor_typeISaIvELm4EEENS0_11prefer_onlyINS1_16outstanding_work11untracked_tILi0EEEEEEEvPvPKvSF_
libsioclient.so.1:_ZN4asio9execution6detail17any_executor_base8query_fnINS_10io_context19basic_executor_typeISaIvELm4EEENS0_11prefer_onlyINS1_16outstanding_work9tracked_tILi0EEEEEEEvPvPKvSF_
libsioclient.so.1:_ZN4asio9execution6detail17any_executor_base8query_fnINS_10io_context19basic_executor_typeISaIvELm4EEENS0_11prefer_onlyINS1_8blocking10possibly_tILi0EEEEEEEvPvPKvSF_
libsioclient.so.1:_ZN4asio9execution6detail17any_executor_base8query_fnINS_10io_context19basic_executor_typeISaIvELm4EEENS0_12context_as_tIRNS_17execution_contextEEEEEvPvPKvSE_
libsioclient.so.1:_ZN4asio9execution6detail17any_executor_base8query_fnINS_10io_context19basic_executor_typeISaIvELm4EEENS1_8blocking7never_tILi0EEEEEvPvPKvSD_
libsioclient.so.1:_ZN4asio9execution6detail17any_executor_base8query_fnIvNS0_11prefer_onlyINS1_12relationship14continuation_tILi0EEEEEEEvPvPKvSB_
libsioclient.so.1:_ZN4asio9execution6detail17any_executor_base8query_fnIvNS0_11prefer_onlyINS1_12relationship6fork_tILi0EEEEEEEvPvPKvSB_
libsioclient.so.1:_ZN4asio9execution6detail17any_executor_base8query_fnIvNS0_11prefer_onlyINS1_16outstanding_work11untracked_tILi0EEEEEEEvPvPKvSB_
libsioclient.so.1:_ZN4asio9execution6detail17any_executor_base8query_fnIvNS0_11prefer_onlyINS1_16outstanding_work9tracked_tILi0EEEEEEEvPvPKvSB_
libsioclient.so.1:_ZN4asio9execution6detail17any_executor_base8query_fnIvNS0_11prefer_onlyINS1_8blocking10possibly_tILi0EEEEEEEvPvPKvSB_
libsioclient.so.1:_ZN4asio9execution6detail17any_executor_base8query_fnIvNS0_12context_as_tIRNS_17execution_contextEEEEEvPvPKvSA_
libsioclient.so.1:_ZN4asio9execution6detail17any_executor_base8query_fnIvNS1_8blocking7never_tILi0EEEEEvPvPKvS9_
libsioclient.so.1:_ZN4asio9execution6detail17any_executor_base9prefer_fnINS0_12any_executorIJNS0_12context_as_tIRNS_17execution_contextEEENS1_8blocking7never_tILi0EEENS0_11prefer_onlyINS9_10possibly_tILi0EEEEENSC_INS1_16outstanding_work9tracked_tILi0EEEEENSC_INSG_11untracked_tILi0EEEEENSC_INS1_12relationship6fork_tILi0EEEEENSC_INSN_14continuation_tILi0EEEEEEEENS_10io_context19basic_executor_typeISaIvELm0EEES8_EET_PKvS11_
libsioclient.so.1:_ZN4asio9execution6detail17any_executor_base9prefer_fnINS0_12any_executorIJNS0_12context_as_tIRNS_17execution_contextEEENS1_8blocking7never_tILi0EEENS0_11prefer_onlyINS9_10possibly_tILi0EEEEENSC_INS1_16outstanding_work9tracked_tILi0EEEEENSC_INSG_11untracked_tILi0EEEEENSC_INS1_12relationship6fork_tILi0EEEEENSC_INSN_14continuation_tILi0EEEEEEEENS_10io_context19basic_executor_typeISaIvELm0EEESB_EET_PKvS11_
libsioclient.so.1:_ZN4asio9execution6detail17any_executor_base9prefer_fnINS0_12any_executorIJNS0_12context_as_tIRNS_17execution_contextEEENS1_8blocking7never_tILi0EEENS0_11prefer_onlyINS9_10possibly_tILi0EEEEENSC_INS1_16outstanding_work9tracked_tILi0EEEEENSC_INSG_11untracked_tILi0EEEEENSC_INS1_12relationship6fork_tILi0EEEEENSC_INSN_14continuation_tILi0EEEEEEEENS_10io_context19basic_executor_typeISaIvELm0EEESF_EET_PKvS11_
libsioclient.so.1:_ZN4asio9execution6detail17any_executor_base9prefer_fnINS0_12any_executorIJNS0_12context_as_tIRNS_17execution_contextEEENS1_8blocking7never_tILi0EEENS0_11prefer_onlyINS9_10possibly_tILi0EEEEENSC_INS1_16outstanding_work9tracked_tILi0EEEEENSC_INSG_11untracked_tILi0EEEEENSC_INS1_12relationship6fork_tILi0EEEEENSC_INSN_14continuation_tILi0EEEEEEEENS_10io_context19basic_executor_typeISaIvELm0EEESJ_EET_PKvS11_
libsioclient.so.1:_ZN4asio9execution6detail17any_executor_base9prefer_fnINS0_12any_executorIJNS0_12context_as_tIRNS_17execution_contextEEENS1_8blocking7never_tILi0EEENS0_11prefer_onlyINS9_10possibly_tILi0EEEEENSC_INS1_16outstanding_work9tracked_tILi0EEEEENSC_INSG_11untracked_tILi0EEEEENSC_INS1_12relationship6fork_tILi0EEEEENSC_INSN_14continuation_tILi0EEEEEEEENS_10io_context19basic_executor_typeISaIvELm0EEESM_EET_PKvS11_
libsioclient.so.1:_ZN4asio9execution6detail17any_executor_base9prefer_fnINS0_12any_executorIJNS0_12context_as_tIRNS_17execution_contextEEENS1_8blocking7never_tILi0EEENS0_11prefer_onlyINS9_10possibly_tILi0EEEEENSC_INS1_16outstanding_work9tracked_tILi0EEEEENSC_INSG_11untracked_tILi0EEEEENSC_INS1_12relationship6fork_tILi0EEEEENSC_INSN_14continuation_tILi0EEEEEEEENS_10io_context19basic_executor_typeISaIvELm0EEESQ_EET_PKvS11_
libsioclient.so.1:_ZN4asio9execution6detail17any_executor_base9prefer_fnINS0_12any_executorIJNS0_12context_as_tIRNS_17execution_contextEEENS1_8blocking7never_tILi0EEENS0_11prefer_onlyINS9_10possibly_tILi0EEEEENSC_INS1_16outstanding_work9tracked_tILi0EEEEENSC_INSG_11untracked_tILi0EEEEENSC_INS1_12relationship6fork_tILi0EEEEENSC_INSN_14continuation_tILi0EEEEEEEENS_10io_context19basic_executor_typeISaIvELm0EEEST_EET_PKvS11_
libsioclient.so.1:_ZN4asio9execution6detail17any_executor_base9prefer_fnINS0_12any_executorIJNS0_12context_as_tIRNS_17execution_contextEEENS1_8blocking7never_tILi0EEENS0_11prefer_onlyINS9_10possibly_tILi0EEEEENSC_INS1_16outstanding_work9tracked_tILi0EEEEENSC_INSG_11untracked_tILi0EEEEENSC_INS1_12relationship6fork_tILi0EEEEENSC_INSN_14continuation_tILi0EEEEEEEENS_10io_context19basic_executor_typeISaIvELm4EEES8_EET_PKvS11_
libsioclient.so.1:_ZN4asio9execution6detail17any_executor_base9prefer_fnINS0_12any_executorIJNS0_12context_as_tIRNS_17execution_contextEEENS1_8blocking7never_tILi0EEENS0_11prefer_onlyINS9_10possibly_tILi0EEEEENSC_INS1_16outstanding_work9tracked_tILi0EEEEENSC_INSG_11untracked_tILi0EEEEENSC_INS1_12relationship6fork_tILi0EEEEENSC_INSN_14continuation_tILi0EEEEEEEENS_10io_context19basic_executor_typeISaIvELm4EEESB_EET_PKvS11_
libsioclient.so.1:_ZN4asio9execution6detail17any_executor_base9prefer_fnINS0_12any_executorIJNS0_12context_as_tIRNS_17execution_contextEEENS1_8blocking7never_tILi0EEENS0_11prefer_onlyINS9_10possibly_tILi0EEEEENSC_INS1_16outstanding_work9tracked_tILi0EEEEENSC_INSG_11untracked_tILi0EEEEENSC_INS1_12relationship6fork_tILi0EEEEENSC_INSN_14continuation_tILi0EEEEEEEENS_10io_context19basic_executor_typeISaIvELm4EEESF_EET_PKvS11_
libsioclient.so.1:_ZN4asio9execution6detail17any_executor_base9prefer_fnINS0_12any_executorIJNS0_12context_as_tIRNS_17execution_contextEEENS1_8blocking7never_tILi0EEENS0_11prefer_onlyINS9_10possibly_tILi0EEEEENSC_INS1_16outstanding_work9tracked_tILi0EEEEENSC_INSG_11untracked_tILi0EEEEENSC_INS1_12relationship6fork_tILi0EEEEENSC_INSN_14continuation_tILi0EEEEEEEENS_10io_context19basic_executor_typeISaIvELm4EEESJ_EET_PKvS11_
libsioclient.so.1:_ZN4asio9execution6detail17any_executor_base9prefer_fnINS0_12any_executorIJNS0_12context_as_tIRNS_17execution_contextEEENS1_8blocking7never_tILi0EEENS0_11prefer_onlyINS9_10possibly_tILi0EEEEENSC_INS1_16outstanding_work9tracked_tILi0EEEEENSC_INSG_11untracked_tILi0EEEEENSC_INS1_12relationship6fork_tILi0EEEEENSC_INSN_14continuation_tILi0EEEEEEEENS_10io_context19basic_executor_typeISaIvELm4EEESM_EET_PKvS11_
libsioclient.so.1:_ZN4asio9execution6detail17any_executor_base9prefer_fnINS0_12any_executorIJNS0_12context_as_tIRNS_17execution_contextEEENS1_8blocking7never_tILi0EEENS0_11prefer_onlyINS9_10possibly_tILi0EEEEENSC_INS1_16outstanding_work9tracked_tILi0EEEEENSC_INSG_11untracked_tILi0EEEEENSC_INS1_12relationship6fork_tILi0EEEEENSC_INSN_14continuation_tILi0EEEEEEEENS_10io_context19basic_executor_typeISaIvELm4EEESQ_EET_PKvS11_
libsioclient.so.1:_ZN4asio9execution6detail17any_executor_base9prefer_fnINS0_12any_executorIJNS0_12context_as_tIRNS_17execution_contextEEENS1_8blocking7never_tILi0EEENS0_11prefer_onlyINS9_10possibly_tILi0EEEEENSC_INS1_16outstanding_work9tracked_tILi0EEEEENSC_INSG_11untracked_tILi0EEEEENSC_INS1_12relationship6fork_tILi0EEEEENSC_INSN_14continuation_tILi0EEEEEEEENS_10io_context19basic_executor_typeISaIvELm4EEEST_EET_PKvS11_
libsioclient.so.1:_ZN4asio9execution6detail17any_executor_base9prefer_fnINS0_12any_executorIJNS0_12context_as_tIRNS_17execution_contextEEENS1_8blocking7never_tILi0EEENS0_11prefer_onlyINS9_10possibly_tILi0EEEEENSC_INS1_16outstanding_work9tracked_tILi0EEEEENSC_INSG_11untracked_tILi0EEEEENSC_INS1_12relationship6fork_tILi0EEEEENSC_INSN_14continuation_tILi0EEEEEEEEvS8_EET_PKvSX_
libsioclient.so.1:_ZN4asio9execution6detail17any_executor_base9prefer_fnINS0_12any_executorIJNS0_12context_as_tIRNS_17execution_contextEEENS1_8blocking7never_tILi0EEENS0_11prefer_onlyINS9_10possibly_tILi0EEEEENSC_INS1_16outstanding_work9tracked_tILi0EEEEENSC_INSG_11untracked_tILi0EEEEENSC_INS1_12relationship6fork_tILi0EEEEENSC_INSN_14continuation_tILi0EEEEEEEEvSB_EET_PKvSX_
libsioclient.so.1:_ZN4asio9execution6detail17any_executor_base9prefer_fnINS0_12any_executorIJNS0_12context_as_tIRNS_17execution_contextEEENS1_8blocking7never_tILi0EEENS0_11prefer_onlyINS9_10possibly_tILi0EEEEENSC_INS1_16outstanding_work9tracked_tILi0EEEEENSC_INSG_11untracked_tILi0EEEEENSC_INS1_12relationship6fork_tILi0EEEEENSC_INSN_14continuation_tILi0EEEEEEEEvSF_EET_PKvSX_
libsioclient.so.1:_ZN4asio9execution6detail17any_executor_base9prefer_fnINS0_12any_executorIJNS0_12context_as_tIRNS_17execution_contextEEENS1_8blocking7never_tILi0EEENS0_11prefer_onlyINS9_10possibly_tILi0EEEEENSC_INS1_16outstanding_work9tracked_tILi0EEEEENSC_INSG_11untracked_tILi0EEEEENSC_INS1_12relationship6fork_tILi0EEEEENSC_INSN_14continuation_tILi0EEEEEEEEvSJ_EET_PKvSX_
libsioclient.so.1:_ZN4asio9execution6detail17any_executor_base9prefer_fnINS0_12any_executorIJNS0_12context_as_tIRNS_17execution_contextEEENS1_8blocking7never_tILi0EEENS0_11prefer_onlyINS9_10possibly_tILi0EEEEENSC_INS1_16outstanding_work9tracked_tILi0EEEEENSC_INSG_11untracked_tILi0EEEEENSC_INS1_12relationship6fork_tILi0EEEEENSC_INSN_14continuation_tILi0EEEEEEEEvSM_EET_PKvSX_
libsioclient.so.1:_ZN4asio9execution6detail17any_executor_base9prefer_fnINS0_12any_executorIJNS0_12context_as_tIRNS_17execution_contextEEENS1_8blocking7never_tILi0EEENS0_11prefer_onlyINS9_10possibly_tILi0EEEEENSC_INS1_16outstanding_work9tracked_tILi0EEEEENSC_INSG_11untracked_tILi0EEEEENSC_INS1_12relationship6fork_tILi0EEEEENSC_INSN_14continuation_tILi0EEEEEEEEvSQ_EET_PKvSX_
libsioclient.so.1:_ZN4asio9execution6detail17any_executor_base9prefer_fnINS0_12any_executorIJNS0_12context_as_tIRNS_17execution_contextEEENS1_8blocking7never_tILi0EEENS0_11prefer_onlyINS9_10possibly_tILi0EEEEENSC_INS1_16outstanding_work9tracked_tILi0EEEEENSC_INSG_11untracked_tILi0EEEEENSC_INS1_12relationship6fork_tILi0EEEEENSC_INSN_14continuation_tILi0EEEEEEEEvST_EET_PKvSX_
libsioclient.so.1:_ZNK3sio11client_impl10next_delayEv
libsioclient.so.1:_ZNK3sio14packet_manager6encodeERNS_6packetERKSt8functionIFvbRKSt10shared_ptrIKNSt7__cxx1112basic_stringIcSt11char_traitsIcESaIcEEEEEE
libsioclient.so.1:_ZNK3sio5event11get_messageEv
libsioclient.so.1:_ZNK3sio5event12get_messagesEv
libsioclient.so.1:_ZNK3sio5event15get_ack_messageEv
libsioclient.so.1:_ZNK3sio5event7get_nspB5cxx11Ev
libsioclient.so.1:_ZNK3sio5event8get_nameB5cxx11Ev
libsioclient.so.1:_ZNK3sio5event8need_ackEv
libsioclient.so.1:_ZNK3sio6client13get_sessionidB5cxx11Ev
libsioclient.so.1:_ZNK3sio6client6openedEv
libsioclient.so.1:_ZNK3sio6packet11get_messageEv
libsioclient.so.1:_ZNK3sio6packet11get_pack_idEv
libsioclient.so.1:_ZNK3sio6packet7get_nspB5cxx11Ev
libsioclient.so.1:_ZNK3sio6packet8get_typeEv
libsioclient.so.1:_ZNK3sio6packet9get_frameEv
libsioclient.so.1:_ZNK3sio6socket13get_namespaceB5cxx11Ev
libsioclient.so.1:_ZNK9rapidjson11ParseResult7IsErrorEv
libsioclient.so.1:_ZNSt15__exception_ptr12__dest_thunkIN4asio19multiple_exceptionsEEEvPv
libsioclient.so.1:_ZNSt17_Function_handlerIFvRKN3sio6packetEESt5_BindIFMNS0_11client_implEFvS3_EPS6_St12_PlaceholderILi1EEEEE10_M_managerERSt9_Any_dataRKSF_St18_Manager_operation
libsioclient.so.1:_ZNSt17_Function_handlerIFvRKN3sio6packetEESt5_BindIFMNS0_11client_implEFvS3_EPS6_St12_PlaceholderILi1EEEEE9_M_invokeERKSt9_Any_dataS3_
libsioclient.so.1:_ZNSt17_Function_handlerIFvRKSt10error_codeESt5_BindIFMN11websocketpp10connectionINS5_6config11asio_clientEEEFvNS9_16terminate_statusES2_ESt10shared_ptrIS9_ESA_St12_PlaceholderILi1EEEEE10_M_managerERSt9_Any_dataRKSK_St18_Manager_operation
libsioclient.so.1:_ZNSt17_Function_handlerIFvRKSt10error_codeESt5_BindIFMN11websocketpp10connectionINS5_6config11asio_clientEEEFvNS9_16terminate_statusES2_ESt10shared_ptrIS9_ESA_St12_PlaceholderILi1EEEEE9_M_invokeERKSt9_Any_dataS2_
libsioclient.so.1:_ZNSt17_Function_handlerIFvRKSt10error_codeESt5_BindIFMN11websocketpp10connectionINS5_6config11asio_clientEEEFvS2_EPS9_St12_PlaceholderILi1EEEEE10_M_managerERSt9_Any_dataRKSI_St18_Manager_operation
libsioclient.so.1:_ZNSt17_Function_handlerIFvRKSt10error_codeESt5_BindIFMN11websocketpp10connectionINS5_6config11asio_clientEEEFvS2_EPS9_St12_PlaceholderILi1EEEEE9_M_invokeERKSt9_Any_dataS2_
libsioclient.so.1:_ZNSt17_Function_handlerIFvRKSt10error_codeESt5_BindIFMN11websocketpp10connectionINS5_6config11asio_clientEEEFvS2_ESt10shared_ptrIS9_ESt12_PlaceholderILi1EEEEE10_M_managerERSt9_Any_dataRKSJ_St18_Manager_operation
libsioclient.so.1:_ZNSt17_Function_handlerIFvRKSt10error_codeESt5_BindIFMN11websocketpp10connectionINS5_6config11asio_clientEEEFvS2_ESt10shared_ptrIS9_ESt12_PlaceholderILi1EEEEE9_M_invokeERKSt9_Any_dataS2_
libsioclient.so.1:_ZNSt17_Function_handlerIFvRKSt10error_codeESt5_BindIFMN11websocketpp6clientINS5_6config11asio_clientEEEFvSt10shared_ptrINS5_10connectionIS8_EEES2_EPS9_SD_St12_PlaceholderILi1EEEEE10_M_managerERSt9_Any_dataRKSM_St18_Manager_operation
libsioclient.so.1:_ZNSt17_Function_handlerIFvRKSt10error_codeESt5_BindIFMN11websocketpp6clientINS5_6config11asio_clientEEEFvSt10shared_ptrINS5_10connectionIS8_EEES2_EPS9_SD_St12_PlaceholderILi1EEEEE9_M_invokeERKSt9_Any_dataS2_
libsioclient.so.1:_ZNSt17_Function_handlerIFvRKSt10error_codeESt5_BindIFMN11websocketpp9transport4asio10connectionINS5_6config11asio_client16transport_configEEEFvSt10shared_ptrIN4asio20basic_waitable_timerINSt6chrono3_V212steady_clockENSE_11wait_traitsISI_EENSE_15any_io_executorEEEESt8functionIS3_ES2_ESD_ISC_ESN_SP_St12_PlaceholderILi1EEEEE10_M_managerERSt9_Any_dataRKSY_St18_Manager_operation
libsioclient.so.1:_ZNSt17_Function_handlerIFvRKSt10error_codeESt5_BindIFMN11websocketpp9transport4asio10connectionINS5_6config11asio_client16transport_configEEEFvSt10shared_ptrIN4asio20basic_waitable_timerINSt6chrono3_V212steady_clockENSE_11wait_traitsISI_EENSE_15any_io_executorEEEESt8functionIS3_ES2_ESD_ISC_ESN_SP_St12_PlaceholderILi1EEEEE9_M_invokeERKSt9_Any_dataS2_
libsioclient.so.1:_ZNSt17_Function_handlerIFvRKSt10error_codeESt5_BindIFMN11websocketpp9transport4asio10connectionINS5_6config11asio_client16transport_configEEEFvSt8functionIS3_ES2_ESt10shared_ptrISC_ESE_St12_PlaceholderILi1EEEEE10_M_managerERSt9_Any_dataRKSO_St18_Manager_operation
libsioclient.so.1:_ZNSt17_Function_handlerIFvRKSt10error_codeESt5_BindIFMN11websocketpp9transport4asio10connectionINS5_6config11asio_client16transport_configEEEFvSt8functionIS3_ES2_ESt10shared_ptrISC_ESE_St12_PlaceholderILi1EEEEE9_M_invokeERKSt9_Any_dataS2_
libsioclient.so.1:_ZNSt17_Function_handlerIFvRKSt10error_codeESt5_BindIFMN11websocketpp9transport4asio8endpointINS5_6config11asio_client16transport_configEEEFvSt10shared_ptrIN4asio20basic_waitable_timerINSt6chrono3_V212steady_clockENSE_11wait_traitsISI_EENSE_15any_io_executorEEEESt8functionIS3_ES2_EPSC_SN_SP_St12_PlaceholderILi1EEEEE10_M_managerERSt9_Any_dataRKSY_St18_Manager_operation
libsioclient.so.1:_ZNSt17_Function_handlerIFvRKSt10error_codeESt5_BindIFMN11websocketpp9transport4asio8endpointINS5_6config11asio_client16transport_configEEEFvSt10shared_ptrIN4asio20basic_waitable_timerINSt6chrono3_V212steady_clockENSE_11wait_traitsISI_EENSE_15any_io_executorEEEESt8functionIS3_ES2_EPSC_SN_SP_St12_PlaceholderILi1EEEEE9_M_invokeERKSt9_Any_dataS2_
libsioclient.so.1:_ZNSt17_Function_handlerIFvRKSt10error_codeESt5_BindIFMN11websocketpp9transport4asio8endpointINS5_6config11asio_client16transport_configEEEFvSt10shared_ptrINS7_10connectionISB_EEESD_IN4asio20basic_waitable_timerINSt6chrono3_V212steady_clockENSH_11wait_traitsISL_EENSH_15any_io_executorEEEESt8functionIS3_ES2_EPSC_SG_SQ_SS_St12_PlaceholderILi1EEEEE10_M_managerERSt9_Any_dataRKS11_St18_Manager_operation
libsioclient.so.1:_ZNSt17_Function_handlerIFvRKSt10error_codeESt5_BindIFMN11websocketpp9transport4asio8endpointINS5_6config11asio_client16transport_configEEEFvSt10shared_ptrINS7_10connectionISB_EEESD_IN4asio20basic_waitable_timerINSt6chrono3_V212steady_clockENSH_11wait_traitsISL_EENSH_15any_io_executorEEEESt8functionIS3_ES2_EPSC_SG_SQ_SS_St12_PlaceholderILi1EEEEE9_M_invokeERKSt9_Any_dataS2_
libsioclient.so.1:_ZNSt17_Function_handlerIFvRKSt10error_codemESt5_BindIFMN11websocketpp10connectionINS5_6config11asio_clientEEEFvS2_mEPS9_St12_PlaceholderILi1EESD_ILi2EEEEE10_M_managerERSt9_Any_dataRKSJ_St18_Manager_operation
libsioclient.so.1:_ZNSt17_Function_handlerIFvRKSt10error_codemESt5_BindIFMN11websocketpp10connectionINS5_6config11asio_clientEEEFvS2_mEPS9_St12_PlaceholderILi1EESD_ILi2EEEEE9_M_invokeERKSt9_Any_dataS2_Om
libsioclient.so.1:_ZNSt17_Function_handlerIFvRKSt10error_codemESt5_BindIFMN11websocketpp10connectionINS5_6config11asio_clientEEEFvS2_mESt10shared_ptrIS9_ESt12_PlaceholderILi1EESE_ILi2EEEEE10_M_managerERSt9_Any_dataRKSK_St18_Manager_operation
libsioclient.so.1:_ZNSt17_Function_handlerIFvRKSt10error_codemESt5_BindIFMN11websocketpp10connectionINS5_6config11asio_clientEEEFvS2_mESt10shared_ptrIS9_ESt12_PlaceholderILi1EESE_ILi2EEEEE9_M_invokeERKSt9_Any_dataS2_Om
libsioclient.so.1:_ZNSt17_Function_handlerIFvRN3sio5eventEESt5_BindIFPFvRKSt8functionIFvRKNSt7__cxx1112basic_stringIcSt11char_traitsIcESaIcEEERKSt10shared_ptrINS0_7messageEEbRNSF_4listEEES2_ESM_St12_PlaceholderILi1EEEEE10_M_managerERSt9_Any_dataRKSW_St18_Manager_operation
libsioclient.so.1:_ZNSt17_Function_handlerIFvRN3sio5eventEESt5_BindIFPFvRKSt8functionIFvRKNSt7__cxx1112basic_stringIcSt11char_traitsIcESaIcEEERKSt10shared_ptrINS0_7messageEEbRNSF_4listEEES2_ESM_St12_PlaceholderILi1EEEEE9_M_invokeERKSt9_Any_dataS2_
libsioclient.so.1:_ZNSt17_Function_handlerIFvSt8weak_ptrIvEESt5_BindIFMN3sio11client_implEFvS1_EPS5_St12_PlaceholderILi1EEEEE10_M_managerERSt9_Any_dataRKSE_St18_Manager_operation
libsioclient.so.1:_ZNSt17_Function_handlerIFvSt8weak_ptrIvEESt5_BindIFMN3sio11client_implEFvS1_EPS5_St12_PlaceholderILi1EEEEE9_M_invokeERKSt9_Any_dataOS1_
libsioclient.so.1:_ZNSt17_Function_handlerIFvSt8weak_ptrIvESt10shared_ptrIN11websocketpp14message_buffer7messageINS4_5alloc15con_msg_managerEEEEESt5_BindIFMN3sio11client_implEFvS1_S9_EPSD_St12_PlaceholderILi1EESH_ILi2EEEEE10_M_managerERSt9_Any_dataRKSN_St18_Manager_operation
libsioclient.so.1:_ZNSt17_Function_handlerIFvSt8weak_ptrIvESt10shared_ptrIN11websocketpp14message_buffer7messageINS4_5alloc15con_msg_managerEEEEESt5_BindIFMN3sio11client_implEFvS1_S9_EPSD_St12_PlaceholderILi1EESH_ILi2EEEEE9_M_invokeERKSt9_Any_dataOS1_OS9_
libsioclient.so.1:_ZNSt17_Function_handlerIFvbRKSt10shared_ptrIKNSt7__cxx1112basic_stringIcSt11char_traitsIcESaIcEEEEESt5_BindIFMN3sio11client_implEFvbSA_EPSE_St12_PlaceholderILi1EESI_ILi2EEEEE10_M_managerERSt9_Any_dataRKSO_St18_Manager_operation
libsioclient.so.1:_ZNSt17_Function_handlerIFvbRKSt10shared_ptrIKNSt7__cxx1112basic_stringIcSt11char_traitsIcESaIcEEEEESt5_BindIFMN3sio11client_implEFvbSA_EPSE_St12_PlaceholderILi1EESI_ILi2EEEEE9_M_invokeERKSt9_Any_dataObSA_
libsioclient.so.1:_ZNSt17_Function_handlerIFvvESt5_BindIFMN11websocketpp10connectionINS2_6config11asio_clientEEEFvvESt10shared_ptrIS6_EEEE10_M_managerERSt9_Any_dataRKSE_St18_Manager_operation
libsioclient.so.1:_ZNSt17_Function_handlerIFvvESt5_BindIFMN11websocketpp10connectionINS2_6config11asio_clientEEEFvvESt10shared_ptrIS6_EEEE9_M_invokeERKSt9_Any_data
libsioclient.so.1:_ZNSt6thread24_M_thread_deps_never_runEv
libsioclient.so.1:asio_detail_posix_thread_function
libsioclient_tls.so.1:_ZN11websocketpp10connectionINS_6config15asio_tls_clientEE11write_frameEv
libsioclient_tls.so.1:_ZN11websocketpp10connectionINS_6config15asio_tls_clientEE16handle_terminateENS3_16terminate_statusERKSt10error_code
libsioclient_tls.so.1:_ZN11websocketpp10connectionINS_6config15asio_tls_clientEE17handle_read_frameERKSt10error_codem
libsioclient_tls.so.1:_ZN11websocketpp10connectionINS_6config15asio_tls_clientEE18handle_write_frameERKSt10error_code
libsioclient_tls.so.1:_ZN11websocketpp10connectionINS_6config15asio_tls_clientEE21handle_read_handshakeERKSt10error_codem
libsioclient_tls.so.1:_ZN11websocketpp10connectionINS_6config15asio_tls_clientEE21handle_transport_initERKSt10error_code
libsioclient_tls.so.1:_ZN11websocketpp10connectionINS_6config15asio_tls_clientEE24handle_send_http_requestERKSt10error_code
libsioclient_tls.so.1:_ZN11websocketpp10connectionINS_6config15asio_tls_clientEE25handle_read_http_responseERKSt10error_codem
libsioclient_tls.so.1:_ZN11websocketpp10connectionINS_6config15asio_tls_clientEE26handle_write_http_responseERKSt10error_code
libsioclient_tls.so.1:_ZN11websocketpp10connectionINS_6config15asio_tls_clientEE29handle_open_handshake_timeoutERKSt10error_code
libsioclient_tls.so.1:_ZN11websocketpp10connectionINS_6config15asio_tls_clientEE30handle_close_handshake_timeoutERKSt10error_code
libsioclient_tls.so.1:_ZN11websocketpp4http17is_not_token_charEh
libsioclient_tls.so.1:_ZN11websocketpp4http22is_not_whitespace_charEh
libsioclient_tls.so.1:_ZN11websocketpp6clientINS_6config15asio_tls_clientEE14handle_connectESt10shared_ptrINS_10connectionIS2_EEERKSt10error_code
libsioclient_tls.so.1:_ZN11websocketpp9transport4asio10connectionINS_6config15asio_tls_client16transport_configEE12handle_timerESt10shared_ptrIN4asio20basic_waitable_timerINSt6chrono3_V212steady_clockENS8_11wait_traitsISC_EENS8_15any_io_executorEEEESt8functionIFvRKSt10error_codeEESL_
libsioclient_tls.so.1:_ZN11websocketpp9transport4asio10connectionINS_6config15asio_tls_client16transport_configEE15handle_pre_initESt8functionIFvRKSt10error_codeEESA_
libsioclient_tls.so.1:_ZN11websocketpp9transport4asio10connectionINS_6config15asio_tls_client16transport_configEE16handle_post_initESt10shared_ptrIN4asio20basic_waitable_timerINSt6chrono3_V212steady_clockENS8_11wait_traitsISC_EENS8_15any_io_executorEEEESt8functionIFvRKSt10error_codeEESL_
libsioclient_tls.so.1:_ZN11websocketpp9transport4asio10connectionINS_6config15asio_tls_client16transport_configEE17handle_async_readESt8functionIFvRKSt10error_codemEESA_m
libsioclient_tls.so.1:_ZN11websocketpp9transport4asio10connectionINS_6config15asio_tls_client16transport_configEE17handle_proxy_readESt8functionIFvRKSt10error_codeEESA_m
libsioclient_tls.so.1:_ZN11websocketpp9transport4asio10connectionINS_6config15asio_tls_client16transport_configEE18handle_async_writeESt8functionIFvRKSt10error_codeEESA_m
libsioclient_tls.so.1:_ZN11websocketpp9transport4asio10connectionINS_6config15asio_tls_client16transport_configEE18handle_proxy_writeESt8functionIFvRKSt10error_codeEESA_
libsioclient_tls.so.1:_ZN11websocketpp9transport4asio10connectionINS_6config15asio_tls_client16transport_configEE20handle_proxy_timeoutESt8functionIFvRKSt10error_codeEESA_
libsioclient_tls.so.1:_ZN11websocketpp9transport4asio10connectionINS_6config15asio_tls_client16transport_configEE21handle_async_shutdownESt10shared_ptrIN4asio20basic_waitable_timerINSt6chrono3_V212steady_clockENS8_11wait_traitsISC_EENS8_15any_io_executorEEEESt8functionIFvRKSt10error_codeEESL_
libsioclient_tls.so.1:_ZN11websocketpp9transport4asio10connectionINS_6config15asio_tls_client16transport_configEE24handle_post_init_timeoutESt10shared_ptrIN4asio20basic_waitable_timerINSt6chrono3_V212steady_clockENS8_11wait_traitsISC_EENS8_15any_io_executorEEEESt8functionIFvRKSt10error_codeEESL_
libsioclient_tls.so.1:_ZN11websocketpp9transport4asio10connectionINS_6config15asio_tls_client16transport_configEE29handle_async_shutdown_timeoutESt10shared_ptrIN4asio20basic_waitable_timerINSt6chrono3_V212steady_clockENS8_11wait_traitsISC_EENS8_15any_io_executorEEEESt8functionIFvRKSt10error_codeEESL_
libsioclient_tls.so.1:_ZN11websocketpp9transport4asio10tls_socket10connection11handle_initESt8functionIFvRKSt10error_codeEES7_
libsioclient_tls.so.1:_ZN11websocketpp9transport4asio8endpointINS_6config15asio_tls_client16transport_configEE14handle_connectESt10shared_ptrINS1_10connectionIS5_EEES7_IN4asio20basic_waitable_timerINSt6chrono3_V212steady_clockENSB_11wait_traitsISF_EENSB_15any_io_executorEEEESt8functionIFvRKSt10error_codeEESO_
libsioclient_tls.so.1:_ZN11websocketpp9transport4asio8endpointINS_6config15asio_tls_client16transport_configEE14handle_resolveESt10shared_ptrINS1_10connectionIS5_EEES7_IN4asio20basic_waitable_timerINSt6chrono3_V212steady_clockENSB_11wait_traitsISF_EENSB_15any_io_executorEEEESt8functionIFvRKSt10error_codeEESO_NSB_2ip23basic_resolver_iteratorINSR_3tcpEEE
libsioclient_tls.so.1:_ZN11websocketpp9transport4asio8endpointINS_6config15asio_tls_client16transport_configEE22handle_connect_timeoutESt10shared_ptrINS1_10connectionIS5_EEES7_IN4asio20basic_waitable_timerINSt6chrono3_V212steady_clockENSB_11wait_traitsISF_EENSB_15any_io_executorEEEESt8functionIFvRKSt10error_codeEESO_
libsioclient_tls.so.1:_ZN11websocketpp9transport4asio8endpointINS_6config15asio_tls_client16transport_configEE22handle_resolve_timeoutESt10shared_ptrIN4asio20basic_waitable_timerINSt6chrono3_V212steady_clockENS8_11wait_traitsISC_EENS8_15any_io_executorEEEESt8functionIFvRKSt10error_codeEESL_
libsioclient_tls.so.1:_ZN3sio11client_impl10close_implERKtRKNSt7__cxx1112basic_stringIcSt11char_traitsIcESaIcEEE
libsioclient_tls.so.1:_ZN3sio11client_impl10on_messageESt8weak_ptrIvESt10shared_ptrIN11websocketpp14message_buffer7messageINS5_5alloc15con_msg_managerEEEE
libsioclient_tls.so.1:_ZN3sio11client_impl10sync_closeEv
libsioclient_tls.so.1:_ZN3sio11client_impl11on_tls_initESt8weak_ptrIvE
libsioclient_tls.so.1:_ZN3sio11client_impl12clear_timersEv
libsioclient_tls.so.1:_ZN3sio11client_impl12connect_implERKNSt7__cxx1112basic_stringIcSt11char_traitsIcESaIcEEES8_
libsioclient_tls.so.1:_ZN3sio11client_impl12on_handshakeERKSt10shared_ptrINS_7messageEE
libsioclient_tls.so.1:_ZN3sio11client_impl12reset_statesEv
libsioclient_tls.so.1:_ZN3sio11client_impl12timeout_pongERKSt10error_code
libsioclient_tls.so.1:_ZN3sio11client_impl13remove_socketERKNSt7__cxx1112basic_stringIcSt11char_traitsIcESaIcEEE
libsioclient_tls.so.1:_ZN3sio11client_impl14get_io_serviceEv
libsioclient_tls.so.1:_ZN3sio11client_impl14set_logs_quietEv
libsioclient_tls.so.1:_ZN3sio11client_impl16on_socket_closedERKNSt7__cxx1112basic_stringIcSt11char_traitsIcESaIcEEE
libsioclient_tls.so.1:_ZN3sio11client_impl16on_socket_openedERKNSt7__cxx1112basic_stringIcSt11char_traitsIcESaIcEEE
libsioclient_tls.so.1:_ZN3sio11client_impl16set_logs_defaultEv
libsioclient_tls.so.1:_ZN3sio11client_impl16set_logs_verboseEv
libsioclient_tls.so.1:_ZN3sio11client_impl17get_socket_lockedERKNSt7__cxx1112basic_stringIcSt11char_traitsIcESaIcEEE
libsioclient_tls.so.1:_ZN3sio11client_impl17timeout_reconnectERKSt10error_code
libsioclient_tls.so.1:_ZN3sio11client_impl19encode_query_stringERKNSt7__cxx1112basic_stringIcSt11char_traitsIcESaIcEEE
libsioclient_tls.so.1:_ZN3sio11client_impl19sockets_invoke_voidEMNS_6socketEFvvE
libsioclient_tls.so.1:_ZN3sio11client_impl4pingERKSt10error_code
libsioclient_tls.so.1:_ZN3sio11client_impl4sendERNS_6packetE
libsioclient_tls.so.1:_ZN3sio11client_impl5closeEv
libsioclient_tls.so.1:_ZN3sio11client_impl6socketERKNSt7__cxx1112basic_stringIcSt11char_traitsIcESaIcEEE
libsioclient_tls.so.1:_ZN3sio11client_impl7connectERKNSt7__cxx1112basic_stringIcSt11char_traitsIcESaIcEEERKSt3mapIS6_S6_St4lessIS6_ESaISt4pairIS7_S6_EEESH_RKSt10shared_ptrINS_7messageEE
libsioclient_tls.so.1:_ZN3sio11client_impl7on_failESt8weak_ptrIvE
libsioclient_tls.so.1:_ZN3sio11client_impl7on_openESt8weak_ptrIvE
libsioclient_tls.so.1:_ZN3sio11client_impl7on_pingEv
libsioclient_tls.so.1:_ZN3sio11client_impl8on_closeESt8weak_ptrIvE
libsioclient_tls.so.1:_ZN3sio11client_impl8run_loopEv
libsioclient_tls.so.1:_ZN3sio11client_impl9on_decodeERKNS_6packetE
libsioclient_tls.so.1:_ZN3sio11client_impl9on_encodeEbRKSt10shared_ptrIKNSt7__cxx1112basic_stringIcSt11char_traitsIcESaIcEEEE
libsioclient_tls.so.1:_ZN3sio11client_impl9send_implERKSt10shared_ptrIKNSt7__cxx1112basic_stringIcSt11char_traitsIcESaIcEEEEN11websocketpp5frame6opcode5valueE
libsioclient_tls.so.1:_ZN3sio11client_implC1Ev
libsioclient_tls.so.1:_ZN3sio11client_implC2Ev
libsioclient_tls.so.1:_ZN3sio11client_implD1Ev
libsioclient_tls.so.1:_ZN3sio11client_implD2Ev
libsioclient_tls.so.1:_ZN3sio13event_adapter10adapt_funcERKSt8functionIFvRKNSt7__cxx1112basic_stringIcSt11char_traitsIcESaIcEEERKSt10shared_ptrINS_7messageEEbRNSB_4listEEERNS_5eventE
libsioclient_tls.so.1:_ZN3sio14accept_messageERKNS_7messageERN9rapidjson12GenericValueINS3_4UTF8IcEENS3_19MemoryPoolAllocatorINS3_12CrtAllocatorEEEEERNS3_15GenericDocumentIS6_S9_S8_EERSt6vectorISt10shared_ptrIKNSt7__cxx1112basic_stringIcSt11char_traitsIcESaIcEEEESaISO_EE
libsioclient_tls.so.1:_ZN3sio14packet_manager11put_payloadERKNSt7__cxx1112basic_stringIcSt11char_traitsIcESaIcEEE
libsioclient_tls.so.1:_ZN3sio14packet_manager19set_decode_callbackERKSt8functionIFvRKNS_6packetEEE
libsioclient_tls.so.1:_ZN3sio14packet_manager19set_encode_callbackERKSt8functionIFvbRKSt10shared_ptrIKNSt7__cxx1112basic_stringIcSt11char_traitsIcESaIcEEEEEE
libsioclient_tls.so.1:_ZN3sio14packet_manager5resetEv
libsioclient_tls.so.1:_ZN3sio18accept_int_messageERKNS_11int_messageERN9rapidjson12GenericValueINS3_4UTF8IcEENS3_19MemoryPoolAllocatorINS3_12CrtAllocatorEEEEE
libsioclient_tls.so.1:_ZN3sio19accept_bool_messageERKNS_12bool_messageERN9rapidjson12GenericValueINS3_4UTF8IcEENS3_19MemoryPoolAllocatorINS3_12CrtAllocatorEEEEE
libsioclient_tls.so.1:_ZN3sio19accept_null_messageERN9rapidjson12GenericValueINS0_4UTF8IcEENS0_19MemoryPoolAllocatorINS0_12CrtAllocatorEEEEE
libsioclient_tls.so.1:_ZN3sio20accept_array_messageERKNS_13array_messageERN9rapidjson12GenericValueINS3_4UTF8IcEENS3_19MemoryPoolAllocatorINS3_12CrtAllocatorEEEEERNS3_15GenericDocumentIS6_S9_S8_EERSt6vectorISt10shared_ptrIKNSt7__cxx1112basic_stringIcSt11char_traitsIcESaIcEEEESaISO_EE
libsioclient_tls.so.1:_ZN3sio21accept_binary_messageERKNS_14binary_messageERN9rapidjson12GenericValueINS3_4UTF8IcEENS3_19MemoryPoolAllocatorINS3_12CrtAllocatorEEEEERNS3_15GenericDocumentIS6_S9_S8_EERSt6vectorISt10shared_ptrIKNSt7__cxx1112basic_stringIcSt11char_traitsIcESaIcEEEESaISO_EE
libsioclient_tls.so.1:_ZN3sio21accept_double_messageERKNS_14double_messageERN9rapidjson12GenericValueINS3_4UTF8IcEENS3_19MemoryPoolAllocatorINS3_12CrtAllocatorEEEEE
libsioclient_tls.so.1:_ZN3sio21accept_object_messageERKNS_14object_messageERN9rapidjson12GenericValueINS3_4UTF8IcEENS3_19MemoryPoolAllocatorINS3_12CrtAllocatorEEEEERNS3_15GenericDocumentIS6_S9_S8_EERSt6vectorISt10shared_ptrIKNSt7__cxx1112basic_stringIcSt11char_traitsIcESaIcEEEESaISO_EE
libsioclient_tls.so.1:_ZN3sio21accept_string_messageERKNS_14string_messageERN9rapidjson12GenericValueINS3_4UTF8IcEENS3_19MemoryPoolAllocatorINS3_12CrtAllocatorEEEEE
libsioclient_tls.so.1:_ZN3sio5event15put_ack_messageERKNS_7message4listE
libsioclient_tls.so.1:_ZN3sio6client10sync_closeEv
libsioclient_tls.so.1:_ZN3sio6client14set_logs_quietEv
libsioclient_tls.so.1:_ZN3sio6client16set_logs_defaultEv
libsioclient_tls.so.1:_ZN3sio6client16set_logs_verboseEv
libsioclient_tls.so.1:_ZN3sio6client17set_fail_listenerERKSt8functionIFvvEE
libsioclient_tls.so.1:_ZN3sio6client17set_open_listenerERKSt8functionIFvvEE
libsioclient_tls.so.1:_ZN3sio6client18set_close_listenerERKSt8functionIFvRKNS0_12close_reasonEEE
libsioclient_tls.so.1:_ZN3sio6client19clear_con_listenersEv
libsioclient_tls.so.1:_ZN3sio6client19set_reconnect_delayEj
libsioclient_tls.so.1:_ZN3sio6client22clear_socket_listenersEv
libsioclient_tls.so.1:_ZN3sio6client22set_reconnect_attemptsEi
libsioclient_tls.so.1:_ZN3sio6client22set_reconnect_listenerERKSt8functionIFvjjEE
libsioclient_tls.so.1:_ZN3sio6client23set_reconnect_delay_maxEj
libsioclient_tls.so.1:_ZN3sio6client24set_socket_open_listenerERKSt8functionIFvRKNSt7__cxx1112basic_stringIcSt11char_traitsIcESaIcEEEEE
libsioclient_tls.so.1:_ZN3sio6client25set_reconnecting_listenerERKSt8functionIFvvEE
libsioclient_tls.so.1:_ZN3sio6client25set_socket_close_listenerERKSt8functionIFvRKNSt7__cxx1112basic_stringIcSt11char_traitsIcESaIcEEEEE
libsioclient_tls.so.1:_ZN3sio6client5closeEv
libsioclient_tls.so.1:_ZN3sio6client6socketERKNSt7__cxx1112basic_stringIcSt11char_traitsIcESaIcEEE
libsioclient_tls.so.1:_ZN3sio6client7connectERKNSt7__cxx1112basic_stringIcSt11char_traitsIcESaIcEEE
libsioclient_tls.so.1:_ZN3sio6client7connectERKNSt7__cxx1112basic_stringIcSt11char_traitsIcESaIcEEERKSt10shared_ptrINS_7messageEE
libsioclient_tls.so.1:_ZN3sio6client7connectERKNSt7__cxx1112basic_stringIcSt11char_traitsIcESaIcEEERKSt3mapIS6_S6_St4lessIS6_ESaISt4pairIS7_S6_EEE
libsioclient_tls.so.1:_ZN3sio6client7connectERKNSt7__cxx1112basic_stringIcSt11char_traitsIcESaIcEEERKSt3mapIS6_S6_St4lessIS6_ESaISt4pairIS7_S6_EEERKSt10shared_ptrINS_7messageEE
libsioclient_tls.so.1:_ZN3sio6client7connectERKNSt7__cxx1112basic_stringIcSt11char_traitsIcESaIcEEERKSt3mapIS6_S6_St4lessIS6_ESaISt4pairIS7_S6_EEESH_
libsioclient_tls.so.1:_ZN3sio6client7connectERKNSt7__cxx1112basic_stringIcSt11char_traitsIcESaIcEEERKSt3mapIS6_S6_St4lessIS6_ESaISt4pairIS7_S6_EEESH_RKSt10shared_ptrINS_7messageEE
libsioclient_tls.so.1:_ZN3sio6clientC1Ev
libsioclient_tls.so.1:_ZN3sio6clientC2Ev
libsioclient_tls.so.1:_ZN3sio6clientD1Ev
libsioclient_tls.so.1:_ZN3sio6clientD2Ev
libsioclient_tls.so.1:_ZN3sio6packet10is_messageERKNSt7__cxx1112basic_stringIcSt11char_traitsIcESaIcEEE
libsioclient_tls.so.1:_ZN3sio6packet12parse_bufferERKNSt7__cxx1112basic_stringIcSt11char_traitsIcESaIcEEE
libsioclient_tls.so.1:_ZN3sio6packet15is_text_messageERKNSt7__cxx1112basic_stringIcSt11char_traitsIcESaIcEEE
libsioclient_tls.so.1:_ZN3sio6packet17is_binary_messageERKNSt7__cxx1112basic_stringIcSt11char_traitsIcESaIcEEE
libsioclient_tls.so.1:_ZN3sio6packet5parseERKNSt7__cxx1112basic_stringIcSt11char_traitsIcESaIcEEE
libsioclient_tls.so.1:_ZN3sio6packet6acceptERNSt7__cxx1112basic_stringIcSt11char_traitsIcESaIcEEERSt6vectorISt10shared_ptrIKS6_ESaISB_EE
libsioclient_tls.so.1:_ZN3sio6packetC1ENS0_10frame_typeE
libsioclient_tls.so.1:_ZN3sio6packetC1ENS0_4typeERKNSt7__cxx1112basic_stringIcSt11char_traitsIcESaIcEEERKSt10shared_ptrINS_7messageEE
libsioclient_tls.so.1:_ZN3sio6packetC1ERKNSt7__cxx1112basic_stringIcSt11char_traitsIcESaIcEEERKSt10shared_ptrINS_7messageEEib
libsioclient_tls.so.1:_ZN3sio6packetC1Ev
libsioclient_tls.so.1:_ZN3sio6packetC2ENS0_10frame_typeE
libsioclient_tls.so.1:_ZN3sio6packetC2ENS0_4typeERKNSt7__cxx1112basic_stringIcSt11char_traitsIcESaIcEEERKSt10shared_ptrINS_7messageEE
libsioclient_tls.so.1:_ZN3sio6packetC2ERKNSt7__cxx1112basic_stringIcSt11char_traitsIcESaIcEEERKSt10shared_ptrINS_7messageEEib
libsioclient_tls.so.1:_ZN3sio6packetC2Ev
libsioclient_tls.so.1:_ZN3sio6socket12on_connectedEv
libsioclient_tls.so.1:_ZN3sio6socket13on_disconnectEv
libsioclient_tls.so.1:_ZN3sio6socket17on_message_packetERKNS_6packetE
libsioclient_tls.so.1:_ZN3sio6socket2onERKNSt7__cxx1112basic_stringIcSt11char_traitsIcESaIcEEERKSt8functionIFvRNS_5eventEEE
libsioclient_tls.so.1:_ZN3sio6socket2onERKNSt7__cxx1112basic_stringIcSt11char_traitsIcESaIcEEERKSt8functionIFvS8_RKSt10shared_ptrINS_7messageEEbRNSB_4listEEE
libsioclient_tls.so.1:_ZN3sio6socket3offERKNSt7__cxx1112basic_stringIcSt11char_traitsIcESaIcEEE
libsioclient_tls.so.1:_ZN3sio6socket4emitERKNSt7__cxx1112basic_stringIcSt11char_traitsIcESaIcEEERKNS_7message4listERKSt8functionIFvSC_EE
libsioclient_tls.so.1:_ZN3sio6socket4impl11send_packetERNS_6packetE
libsioclient_tls.so.1:_ZN3sio6socket4impl12on_connectedEv
libsioclient_tls.so.1:_ZN3sio6socket4impl12send_connectEv
libsioclient_tls.so.1:_ZN3sio6socket4impl13on_disconnectEv
libsioclient_tls.so.1:_ZN3sio6socket4impl15on_socketio_ackEiRKNS_7message4listE
libsioclient_tls.so.1:_ZN3sio6socket4impl17on_message_packetERKNS_6packetE
libsioclient_tls.so.1:_ZN3sio6socket4impl17on_socketio_errorERKSt10shared_ptrINS_7messageEE
libsioclient_tls.so.1:_ZN3sio6socket4impl17on_socketio_eventERKNSt7__cxx1112basic_stringIcSt11char_traitsIcESaIcEEEiS9_ONS_7message4listE
libsioclient_tls.so.1:_ZN3sio6socket4impl18timeout_connectionERKSt10error_code
libsioclient_tls.so.1:_ZN3sio6socket4impl24get_bind_listener_lockedERKNSt7__cxx1112basic_stringIcSt11char_traitsIcESaIcEEE
libsioclient_tls.so.1:_ZN3sio6socket4impl2onERKNSt7__cxx1112basic_stringIcSt11char_traitsIcESaIcEEERKSt8functionIFvRNS_5eventEEE
libsioclient_tls.so.1:_ZN3sio6socket4impl2onERKNSt7__cxx1112basic_stringIcSt11char_traitsIcESaIcEEERKSt8functionIFvS9_RKSt10shared_ptrINS_7messageEEbRNSC_4listEEE
libsioclient_tls.so.1:_ZN3sio6socket4impl3ackEiRKNSt7__cxx1112basic_stringIcSt11char_traitsIcESaIcEEERKNS_7message4listE
libsioclient_tls.so.1:_ZN3sio6socket4impl3offERKNSt7__cxx1112basic_stringIcSt11char_traitsIcESaIcEEE
libsioclient_tls.so.1:_ZN3sio6socket4impl4emitERKNSt7__cxx1112basic_stringIcSt11char_traitsIcESaIcEEERKNS_7message4listERKSt8functionIFvSD_EE
libsioclient_tls.so.1:_ZN3sio6socket4impl5closeEv
libsioclient_tls.so.1:_ZN3sio6socket4impl7off_allEv
libsioclient_tls.so.1:_ZN3sio6socket4impl7on_openEv
libsioclient_tls.so.1:_ZN3sio6socket4impl8on_closeEv
libsioclient_tls.so.1:_ZN3sio6socket4impl8on_errorERKSt8functionIFvRKSt10shared_ptrINS_7messageEEEE
libsioclient_tls.so.1:_ZN3sio6socket4impl9off_errorEv
libsioclient_tls.so.1:_ZN3sio6socket4implC1EPNS_11client_implERKNSt7__cxx1112basic_stringIcSt11char_traitsIcESaIcEEERKSt10shared_ptrINS_7messageEE
libsioclient_tls.so.1:_ZN3sio6socket4implC2EPNS_11client_implERKNSt7__cxx1112basic_stringIcSt11char_traitsIcESaIcEEERKSt10shared_ptrINS_7messageEE
libsioclient_tls.so.1:_ZN3sio6socket4implD1Ev
libsioclient_tls.so.1:_ZN3sio6socket4implD2Ev
libsioclient_tls.so.1:_ZN3sio6socket5closeEv
libsioclient_tls.so.1:_ZN3sio6socket7off_allEv
libsioclient_tls.so.1:_ZN3sio6socket7on_openEv
libsioclient_tls.so.1:_ZN3sio6socket8on_closeEv
libsioclient_tls.so.1:_ZN3sio6socket8on_errorERKSt8functionIFvRKSt10shared_ptrINS_7messageEEEE
libsioclient_tls.so.1:_ZN3sio6socket9off_errorEv
libsioclient_tls.so.1:_ZN3sio6socketC1EPNS_11client_implERKNSt7__cxx1112basic_stringIcSt11char_traitsIcESaIcEEERKSt10shared_ptrINS_7messageEE
libsioclient_tls.so.1:_ZN3sio6socketC2EPNS_11client_implERKNSt7__cxx1112basic_stringIcSt11char_traitsIcESaIcEEERKSt10shared_ptrINS_7messageEE
libsioclient_tls.so.1:_ZN3sio6socketD1Ev
libsioclient_tls.so.1:_ZN3sio6socketD2Ev
libsioclient_tls.so.1:_ZN3sio9from_jsonERKN9rapidjson12GenericValueINS0_4UTF8IcEENS0_19MemoryPoolAllocatorINS0_12CrtAllocatorEEEEERKSt6vectorISt10shared_ptrIKNSt7__cxx1112basic_stringIcSt11char_traitsIcESaIcEEEESaISJ_EE
libsioclient_tls.so.1:_ZN4asio3ssl6detail6engine10do_connectEPvm
libsioclient_tls.so.1:_ZN4asio3ssl6detail6engine11do_shutdownEPvm
libsioclient_tls.so.1:_ZN4asio3ssl6detail6engine7do_readEPvm
libsioclient_tls.so.1:_ZN4asio3ssl6detail6engine8do_writeEPvm
libsioclient_tls.so.1:_ZN4asio3ssl6detail6engine9do_acceptEPvm
libsioclient_tls.so.1:_ZN4asio6detail11executor_opINS0_17executor_functionESaIvENS0_19scheduler_operationEE11do_completeEPvPS4_RKSt10error_codem
libsioclient_tls.so.1:_ZN4asio6detail12wait_handlerINS0_15wrapped_handlerINS_10io_context6strandESt5_BindIFMN11websocketpp9transport4asio10connectionINS6_6config15asio_tls_client16transport_configEEEFvSt10shared_ptrINS_20basic_waitable_timerINSt6chrono3_V212steady_clockENS_11wait_traitsISI_EENS_15any_io_executorEEEESt8functionIFvRKSt10error_codeEESR_ESE_ISD_ESN_ST_St12_PlaceholderILi1EEEENS0_26is_continuation_if_runningEEESL_E11do_completeEPvPNS0_19scheduler_operationESR_m
libsioclient_tls.so.1:_ZN4asio6detail12wait_handlerINS_3ssl6detail5io_opINS_19basic_stream_socketINS_2ip3tcpENS_15any_io_executorEEENS3_11shutdown_opENS0_15wrapped_handlerINS_10io_context6strandESt8functionIFvRKSt10error_codeEENS0_26is_continuation_if_runningEEEEES8_E11do_completeEPvPNS0_19scheduler_operationESH_m
libsioclient_tls.so.1:_ZN4asio6detail12wait_handlerINS_3ssl6detail5io_opINS_19basic_stream_socketINS_2ip3tcpENS_15any_io_executorEEENS3_11shutdown_opESt8functionIFvRKSt10error_codeEEEES8_E11do_completeEPvPNS0_19scheduler_operationESE_m
libsioclient_tls.so.1:_ZN4asio6detail12wait_handlerINS_3ssl6detail5io_opINS_19basic_stream_socketINS_2ip3tcpENS_15any_io_executorEEENS3_12handshake_opENS0_15wrapped_handlerINS_10io_context6strandESt5_BindIFMN11websocketpp9transport4asio10tls_socket10connectionEFvSt8functionIFvRKSt10error_codeEESN_ESt10shared_ptrISJ_ESP_St12_PlaceholderILi1EEEENS0_26is_continuation_if_runningEEEEES8_E11do_completeEPvPNS0_19scheduler_operationESN_m
libsioclient_tls.so.1:_ZN4asio6detail12wait_handlerINS_3ssl6detail5io_opINS_19basic_stream_socketINS_2ip3tcpENS_15any_io_executorEEENS3_12handshake_opESt5_BindIFMN11websocketpp9transport4asio10tls_socket10connectionEFvSt8functionIFvRKSt10error_codeEESK_ESt10shared_ptrISG_ESM_St12_PlaceholderILi1EEEEEES8_E11do_completeEPvPNS0_19scheduler_operationESK_m
libsioclient_tls.so.1:_ZN4asio6detail12wait_handlerINS_3ssl6detail5io_opINS_19basic_stream_socketINS_2ip3tcpENS_15any_io_executorEEENS3_7read_opINS_17mutable_buffers_1EEENS0_7read_opINS2_6streamIS9_EESB_PKNS_14mutable_bufferENS0_19transfer_at_least_tENS0_15wrapped_handlerINS_10io_context6strandEN11websocketpp9transport4asio20custom_alloc_handlerISt5_BindIFMNSP_10connectionINSN_6config15asio_tls_client16transport_configEEEFvSt8functionIFvRKSt10error_codemEES10_mESt10shared_ptrISW_ES12_St12_PlaceholderILi1EES17_ILi2EEEEEENS0_26is_continuation_if_runningEEEEEEES8_E11do_completeEPvPNS0_19scheduler_operationES10_m
libsioclient_tls.so.1:_ZN4asio6detail12wait_handlerINS_3ssl6detail5io_opINS_19basic_stream_socketINS_2ip3tcpENS_15any_io_executorEEENS3_8write_opINS0_16prepared_buffersINS_12const_bufferELm64EEEEENS0_8write_opINS2_6streamIS9_EESt6vectorISC_SaISC_EEN9__gnu_cxx17__normal_iteratorIPKSC_SK_EENS0_14transfer_all_tENS0_15wrapped_handlerINS_10io_context6strandEN11websocketpp9transport4asio20custom_alloc_handlerISt5_BindIFMNSW_10connectionINSU_6config15asio_tls_client16transport_configEEEFvSt8functionIFvRKSt10error_codeEES17_mESt10shared_ptrIS13_ES19_St12_PlaceholderILi1EES1E_ILi2EEEEEENS0_26is_continuation_if_runningEEEEEEES8_E11do_completeEPvPNS0_19scheduler_operationES17_m
libsioclient_tls.so.1:_ZN4asio6detail12wait_handlerISt5_BindIFMN3sio11client_implEFvRKSt10error_codeEPS4_St12_PlaceholderILi1EEEENS_15any_io_executorEE11do_completeEPvPNS0_19scheduler_operationES7_m
libsioclient_tls.so.1:_ZN4asio6detail12wait_handlerISt5_BindIFMN3sio6socket4implEFvRKSt10error_codeEPS5_St12_PlaceholderILi1EEEENS_15any_io_executorEE11do_completeEPvPNS0_19scheduler_operationES8_m
libsioclient_tls.so.1:_ZN4asio6detail12wait_handlerISt5_BindIFMN3sio6socket4implEFvvEPS5_EENS_15any_io_executorEE11do_completeEPvPNS0_19scheduler_operationERKSt10error_codem
libsioclient_tls.so.1:_ZN4asio6detail13epoll_reactor16descriptor_state11do_completeEPvPNS0_19scheduler_operationERKSt10error_codem
libsioclient_tls.so.1:_ZN4asio6detail13epoll_reactor30call_post_immediate_completionEPNS0_19scheduler_operationEbPKv
libsioclient_tls.so.1:_ZN4asio6detail14strand_service11do_completeEPvPNS0_19scheduler_operationERKSt10error_codem
libsioclient_tls.so.1:_ZN4asio6detail16resolve_query_opINS_2ip3tcpENS0_15wrapped_handlerINS_10io_context6strandESt5_BindIFMN11websocketpp9transport4asio8endpointINS8_6config15asio_tls_client16transport_configEEEFvSt10shared_ptrINSA_10connectionISE_EEESG_INS_20basic_waitable_timerINSt6chrono3_V212steady_clockENS_11wait_traitsISN_EENS_15any_io_executorEEEESt8functionIFvRKSt10error_codeEESW_NS2_23basic_resolver_iteratorIS3_EEEPSF_SJ_SS_SY_St12_PlaceholderILi1EES14_ILi2EEEENS0_26is_continuation_if_runningEEESQ_E11do_completeEPvPNS0_19scheduler_operationESW_m
libsioclient_tls.so.1:_ZN4asio6detail16service_registry6createINS0_13epoll_reactorENS_17execution_contextEEEPNS4_7serviceEPv
libsioclient_tls.so.1:_ZN4asio6detail16service_registry6createINS0_16resolver_serviceINS_2ip3tcpEEENS_10io_contextEEEPNS_17execution_context7serviceEPv
libsioclient_tls.so.1:_ZN4asio6detail16service_registry6createINS0_22deadline_timer_serviceINS0_18chrono_time_traitsINSt6chrono3_V212steady_clockENS_11wait_traitsIS7_EEEEEENS_10io_contextEEEPNS_17execution_context7serviceEPv
libsioclient_tls.so.1:_ZN4asio6detail16service_registry6createINS0_22deadline_timer_serviceINS0_18chrono_time_traitsINSt6chrono3_V212steady_clockENS_11wait_traitsIS7_EEEEEENS_17execution_contextEEEPNSC_7serviceEPv
libsioclient_tls.so.1:_ZN4asio6detail16service_registry6createINS0_23reactive_socket_serviceINS_2ip3tcpEEENS_10io_contextEEEPNS_17execution_context7serviceEPv
libsioclient_tls.so.1:_ZN4asio6detail17executor_function8completeINS0_7binder0INS0_7binder1INS0_19iterator_connect_opINS_2ip3tcpENS_15any_io_executorENS6_23basic_resolver_iteratorIS7_EENS0_25default_connect_conditionENS0_15wrapped_handlerINS_10io_context6strandESt5_BindIFMN11websocketpp9transport4asio8endpointINSG_6config15asio_tls_client16transport_configEEEFvSt10shared_ptrINSI_10connectionISM_EEESO_INS_20basic_waitable_timerINSt6chrono3_V212steady_clockENS_11wait_traitsISV_EES8_EEESt8functionIFvRKSt10error_codeEES13_EPSN_SR_SZ_S15_St12_PlaceholderILi1EEEENS0_26is_continuation_if_runningEEEEES11_EEEESaIvEEEvPNS1_9impl_baseEb
libsioclient_tls.so.1:_ZN4asio6detail17executor_function8completeINS0_7binder1INS0_15wrapped_handlerINS_10io_context6strandESt5_BindIFMN11websocketpp9transport4asio10connectionINS8_6config15asio_tls_client16transport_configEEEFvSt10shared_ptrINS_20basic_waitable_timerINSt6chrono3_V212steady_clockENS_11wait_traitsISK_EENS_15any_io_executorEEEESt8functionIFvRKSt10error_codeEEST_ESG_ISF_ESP_SV_St12_PlaceholderILi1EEEENS0_26is_continuation_if_runningEEESR_EESaIvEEEvPNS1_9impl_baseEb
libsioclient_tls.so.1:_ZN4asio6detail17executor_function8completeINS0_7binder1INS0_19iterator_connect_opINS_2ip3tcpENS_15any_io_executorENS5_23basic_resolver_iteratorIS6_EENS0_25default_connect_conditionENS0_15wrapped_handlerINS_10io_context6strandESt5_BindIFMN11websocketpp9transport4asio8endpointINSF_6config15asio_tls_client16transport_configEEEFvSt10shared_ptrINSH_10connectionISL_EEESN_INS_20basic_waitable_timerINSt6chrono3_V212steady_clockENS_11wait_traitsISU_EES7_EEESt8functionIFvRKSt10error_codeEES12_EPSM_SQ_SY_S14_St12_PlaceholderILi1EEEENS0_26is_continuation_if_runningEEEEES10_EESaIvEEEvPNS1_9impl_baseEb
libsioclient_tls.so.1:_ZN4asio6detail17executor_function8completeINS0_7binder1INS_3ssl6detail5io_opINS_19basic_stream_socketINS_2ip3tcpENS_15any_io_executorEEENS5_11shutdown_opENS0_15wrapped_handlerINS_10io_context6strandESt8functionIFvRKSt10error_codeEENS0_26is_continuation_if_runningEEEEESH_EESaIvEEEvPNS1_9impl_baseEb
libsioclient_tls.so.1:_ZN4asio6detail17executor_function8completeINS0_7binder1INS_3ssl6detail5io_opINS_19basic_stream_socketINS_2ip3tcpENS_15any_io_executorEEENS5_11shutdown_opESt8functionIFvRKSt10error_codeEEEESE_EESaIvEEEvPNS1_9impl_baseEb
libsioclient_tls.so.1:_ZN4asio6detail17executor_function8completeINS0_7binder1INS_3ssl6detail5io_opINS_19basic_stream_socketINS_2ip3tcpENS_15any_io_executorEEENS5_12handshake_opENS0_15wrapped_handlerINS_10io_context6strandESt5_BindIFMN11websocketpp9transport4asio10tls_socket10connectionEFvSt8functionIFvRKSt10error_codeEESP_ESt10shared_ptrISL_ESR_St12_PlaceholderILi1EEEENS0_26is_continuation_if_runningEEEEESN_EESaIvEEEvPNS1_9impl_baseEb
libsioclient_tls.so.1:_ZN4asio6detail17executor_function8completeINS0_7binder1INS_3ssl6detail5io_opINS_19basic_stream_socketINS_2ip3tcpENS_15any_io_executorEEENS5_12handshake_opESt5_BindIFMN11websocketpp9transport4asio10tls_socket10connectionEFvSt8functionIFvRKSt10error_codeEESM_ESt10shared_ptrISI_ESO_St12_PlaceholderILi1EEEEEESK_EESaIvEEEvPNS1_9impl_baseEb
libsioclient_tls.so.1:_ZN4asio6detail17executor_function8completeINS0_7binder1INS_3ssl6detail5io_opINS_19basic_stream_socketINS_2ip3tcpENS_15any_io_executorEEENS5_7read_opINS_17mutable_buffers_1EEENS0_7read_opINS4_6streamISB_EESD_PKNS_14mutable_bufferENS0_19transfer_at_least_tENS0_15wrapped_handlerINS_10io_context6strandEN11websocketpp9transport4asio20custom_alloc_handlerISt5_BindIFMNSR_10connectionINSP_6config15asio_tls_client16transport_configEEEFvSt8functionIFvRKSt10error_codemEES12_mESt10shared_ptrISY_ES14_St12_PlaceholderILi1EES19_ILi2EEEEEENS0_26is_continuation_if_runningEEEEEEES10_EESaIvEEEvPNS1_9impl_baseEb
libsioclient_tls.so.1:_ZN4asio6detail17executor_function8completeINS0_7binder1INS_3ssl6detail5io_opINS_19basic_stream_socketINS_2ip3tcpENS_15any_io_executorEEENS5_8write_opINS0_16prepared_buffersINS_12const_bufferELm64EEEEENS0_8write_opINS4_6streamISB_EESt6vectorISE_SaISE_EEN9__gnu_cxx17__normal_iteratorIPKSE_SM_EENS0_14transfer_all_tENS0_15wrapped_handlerINS_10io_context6strandEN11websocketpp9transport4asio20custom_alloc_handlerISt5_BindIFMNSY_10connectionINSW_6config15asio_tls_client16transport_configEEEFvSt8functionIFvRKSt10error_codeEES19_mESt10shared_ptrIS15_ES1B_St12_PlaceholderILi1EES1G_ILi2EEEEEENS0_26is_continuation_if_runningEEEEEEES17_EESaIvEEEvPNS1_9impl_baseEb
libsioclient_tls.so.1:_ZN4asio6detail17executor_function8completeINS0_7binder1ISt5_BindIFMN3sio11client_implEFvRKSt10error_codeEPS6_St12_PlaceholderILi1EEEES7_EESaIvEEEvPNS1_9impl_baseEb
libsioclient_tls.so.1:_ZN4asio6detail17executor_function8completeINS0_7binder1ISt5_BindIFMN3sio6socket4implEFvRKSt10error_codeEPS7_St12_PlaceholderILi1EEEES8_EESaIvEEEvPNS1_9impl_baseEb
libsioclient_tls.so.1:_ZN4asio6detail17executor_function8completeINS0_7binder1ISt5_BindIFMN3sio6socket4implEFvvEPS7_EESt10error_codeEESaIvEEEvPNS1_9impl_baseEb
libsioclient_tls.so.1:_ZN4asio6detail17executor_function8completeINS0_7binder2INS0_15wrapped_handlerINS_10io_context6strandESt5_BindIFMN11websocketpp9transport4asio8endpointINS8_6config15asio_tls_client16transport_configEEEFvSt10shared_ptrINSA_10connectionISE_EEESG_INS_20basic_waitable_timerINSt6chrono3_V212steady_clockENS_11wait_traitsISN_EENS_15any_io_executorEEEESt8functionIFvRKSt10error_codeEESW_NS_2ip23basic_resolver_iteratorINSZ_3tcpEEEEPSF_SJ_SS_SY_St12_PlaceholderILi1EES16_ILi2EEEENS0_26is_continuation_if_runningEEESU_NSZ_22basic_resolver_resultsIS11_EEEESaIvEEEvPNS1_9impl_baseEb
libsioclient_tls.so.1:_ZN4asio6detail17executor_function8completeINS0_7binder2INS0_29read_until_delim_string_op_v1INS_19basic_stream_socketINS_2ip3tcpENS_15any_io_executorEEENS_19basic_streambuf_refISaIcEEENS0_15wrapped_handlerINS_10io_context6strandESt5_BindIFMN11websocketpp9transport4asio10connectionINSH_6config15asio_tls_client16transport_configEEEFvSt8functionIFvRKSt10error_codeEESS_mESt10shared_ptrISO_ESU_St12_PlaceholderILi1EESZ_ILi2EEEENS0_26is_continuation_if_runningEEEEESQ_mEESaIvEEEvPNS1_9impl_baseEb
libsioclient_tls.so.1:_ZN4asio6detail17executor_function8completeINS0_7binder2INS0_8write_opINS_19basic_stream_socketINS_2ip3tcpENS_15any_io_executorEEENS_14mutable_bufferEPKSA_NS0_14transfer_all_tENS_3ssl6detail5io_opIS9_NSF_11shutdown_opENS0_15wrapped_handlerINS_10io_context6strandESt8functionIFvRKSt10error_codeEENS0_26is_continuation_if_runningEEEEEEESM_mEESaIvEEEvPNS1_9impl_baseEb
libsioclient_tls.so.1:_ZN4asio6detail17executor_function8completeINS0_7binder2INS0_8write_opINS_19basic_stream_socketINS_2ip3tcpENS_15any_io_executorEEENS_14mutable_bufferEPKSA_NS0_14transfer_all_tENS_3ssl6detail5io_opIS9_NSF_11shutdown_opESt8functionIFvRKSt10error_codeEEEEEESJ_mEESaIvEEEvPNS1_9impl_baseEb
libsioclient_tls.so.1:_ZN4asio6detail17executor_function8completeINS0_7binder2INS0_8write_opINS_19basic_stream_socketINS_2ip3tcpENS_15any_io_executorEEENS_14mutable_bufferEPKSA_NS0_14transfer_all_tENS_3ssl6detail5io_opIS9_NSF_12handshake_opENS0_15wrapped_handlerINS_10io_context6strandESt5_BindIFMN11websocketpp9transport4asio10tls_socket10connectionEFvSt8functionIFvRKSt10error_codeEESU_ESt10shared_ptrISQ_ESW_St12_PlaceholderILi1EEEENS0_26is_continuation_if_runningEEEEEEESS_mEESaIvEEEvPNS1_9impl_baseEb
libsioclient_tls.so.1:_ZN4asio6detail17executor_function8completeINS0_7binder2INS0_8write_opINS_19basic_stream_socketINS_2ip3tcpENS_15any_io_executorEEENS_14mutable_bufferEPKSA_NS0_14transfer_all_tENS_3ssl6detail5io_opIS9_NSF_12handshake_opESt5_BindIFMN11websocketpp9transport4asio10tls_socket10connectionEFvSt8functionIFvRKSt10error_codeEESR_ESt10shared_ptrISN_EST_St12_PlaceholderILi1EEEEEEEESP_mEESaIvEEEvPNS1_9impl_baseEb
libsioclient_tls.so.1:_ZN4asio6detail17executor_function8completeINS0_7binder2INS0_8write_opINS_19basic_stream_socketINS_2ip3tcpENS_15any_io_executorEEENS_14mutable_bufferEPKSA_NS0_14transfer_all_tENS_3ssl6detail5io_opIS9_NSF_7read_opINS_17mutable_buffers_1EEENS0_7read_opINSE_6streamIS9_EESI_SC_NS0_19transfer_at_least_tENS0_15wrapped_handlerINS_10io_context6strandEN11websocketpp9transport4asio20custom_alloc_handlerISt5_BindIFMNST_10connectionINSR_6config15asio_tls_client16transport_configEEEFvSt8functionIFvRKSt10error_codemEES14_mESt10shared_ptrIS10_ES16_St12_PlaceholderILi1EES1B_ILi2EEEEEENS0_26is_continuation_if_runningEEEEEEEEES12_mEESaIvEEEvPNS1_9impl_baseEb
libsioclient_tls.so.1:_ZN4asio6detail17executor_function8completeINS0_7binder2INS0_8write_opINS_19basic_stream_socketINS_2ip3tcpENS_15any_io_executorEEENS_14mutable_bufferEPKSA_NS0_14transfer_all_tENS_3ssl6detail5io_opIS9_NSF_8write_opINS0_16prepared_buffersINS_12const_bufferELm64EEEEENS4_INSE_6streamIS9_EESt6vectorISJ_SaISJ_EEN9__gnu_cxx17__normal_iteratorIPKSJ_SQ_EESD_NS0_15wrapped_handlerINS_10io_context6strandEN11websocketpp9transport4asio20custom_alloc_handlerISt5_BindIFMNS11_10connectionINSZ_6config15asio_tls_client16transport_configEEEFvSt8functionIFvRKSt10error_codeEES1C_mESt10shared_ptrIS18_ES1E_St12_PlaceholderILi1EES1J_ILi2EEEEEENS0_26is_continuation_if_runningEEEEEEEEES1A_mEESaIvEEEvPNS1_9impl_baseEb
libsioclient_tls.so.1:_ZN4asio6detail17executor_function8completeINS0_7binder2INS0_8write_opINS_19basic_stream_socketINS_2ip3tcpENS_15any_io_executorEEESt6vectorINS_12const_bufferESaISB_EEN9__gnu_cxx17__normal_iteratorIPKSB_SD_EENS0_14transfer_all_tENS0_15wrapped_handlerINS_10io_context6strandESt5_BindIFMN11websocketpp9transport4asio10connectionINSO_6config15asio_tls_client16transport_configEEEFvSt8functionIFvRKSt10error_codeEESZ_ESt10shared_ptrISV_ES11_St12_PlaceholderILi1EEEENS0_26is_continuation_if_runningEEEEESX_mEESaIvEEEvPNS1_9impl_baseEb
libsioclient_tls.so.1:_ZN4asio6detail17executor_function8completeINS0_7binder2INS_3ssl6detail5io_opINS_19basic_stream_socketINS_2ip3tcpENS_15any_io_executorEEENS5_11shutdown_opENS0_15wrapped_handlerINS_10io_context6strandESt8functionIFvRKSt10error_codeEENS0_26is_continuation_if_runningEEEEESH_mEESaIvEEEvPNS1_9impl_baseEb
libsioclient_tls.so.1:_ZN4asio6detail17executor_function8completeINS0_7binder2INS_3ssl6detail5io_opINS_19basic_stream_socketINS_2ip3tcpENS_15any_io_executorEEENS5_11shutdown_opESt8functionIFvRKSt10error_codeEEEESE_mEESaIvEEEvPNS1_9impl_baseEb
libsioclient_tls.so.1:_ZN4asio6detail17executor_function8completeINS0_7binder2INS_3ssl6detail5io_opINS_19basic_stream_socketINS_2ip3tcpENS_15any_io_executorEEENS5_12handshake_opENS0_15wrapped_handlerINS_10io_context6strandESt5_BindIFMN11websocketpp9transport4asio10tls_socket10connectionEFvSt8functionIFvRKSt10error_codeEESP_ESt10shared_ptrISL_ESR_St12_PlaceholderILi1EEEENS0_26is_continuation_if_runningEEEEESN_mEESaIvEEEvPNS1_9impl_baseEb
libsioclient_tls.so.1:_ZN4asio6detail17executor_function8completeINS0_7binder2INS_3ssl6detail5io_opINS_19basic_stream_socketINS_2ip3tcpENS_15any_io_executorEEENS5_12handshake_opESt5_BindIFMN11websocketpp9transport4asio10tls_socket10connectionEFvSt8functionIFvRKSt10error_codeEESM_ESt10shared_ptrISI_ESO_St12_PlaceholderILi1EEEEEESK_mEESaIvEEEvPNS1_9impl_baseEb
libsioclient_tls.so.1:_ZN4asio6detail17executor_function8completeINS0_7binder2INS_3ssl6detail5io_opINS_19basic_stream_socketINS_2ip3tcpENS_15any_io_executorEEENS5_7read_opINS_17mutable_buffers_1EEENS0_7read_opINS4_6streamISB_EESD_PKNS_14mutable_bufferENS0_19transfer_at_least_tENS0_15wrapped_handlerINS_10io_context6strandEN11websocketpp9transport4asio20custom_alloc_handlerISt5_BindIFMNSR_10connectionINSP_6config15asio_tls_client16transport_configEEEFvSt8functionIFvRKSt10error_codemEES12_mESt10shared_ptrISY_ES14_St12_PlaceholderILi1EES19_ILi2EEEEEENS0_26is_continuation_if_runningEEEEEEES10_mEESaIvEEEvPNS1_9impl_baseEb
libsioclient_tls.so.1:_ZN4asio6detail17executor_function8completeINS0_7binder2INS_3ssl6detail5io_opINS_19basic_stream_socketINS_2ip3tcpENS_15any_io_executorEEENS5_8write_opINS0_16prepared_buffersINS_12const_bufferELm64EEEEENS0_8write_opINS4_6streamISB_EESt6vectorISE_SaISE_EEN9__gnu_cxx17__normal_iteratorIPKSE_SM_EENS0_14transfer_all_tENS0_15wrapped_handlerINS_10io_context6strandEN11websocketpp9transport4asio20custom_alloc_handlerISt5_BindIFMNSY_10connectionINSW_6config15asio_tls_client16transport_configEEEFvSt8functionIFvRKSt10error_codeEES19_mESt10shared_ptrIS15_ES1B_St12_PlaceholderILi1EES1G_ILi2EEEEEENS0_26is_continuation_if_runningEEEEEEES17_mEESaIvEEEvPNS1_9impl_baseEb
libsioclient_tls.so.1:_ZN4asio6detail18completion_handlerINS0_15wrapped_handlerINS_10io_context6strandESt8functionIFvvEENS0_26is_continuation_if_runningEEENS3_19basic_executor_typeISaIvELm0EEEE11do_completeEPvPNS0_19scheduler_operationERKSt10error_codem
libsioclient_tls.so.1:_ZN4asio6detail18completion_handlerINS0_17rewrapped_handlerINS0_15wrapped_handlerINS_10io_context6strandESt8functionIFvvEENS0_26is_continuation_if_runningEEES8_EENS4_19basic_executor_typeISaIvELm0EEEE11do_completeEPvPNS0_19scheduler_operationERKSt10error_codem
libsioclient_tls.so.1:_ZN4asio6detail18completion_handlerINS0_17rewrapped_handlerINS0_7binder0INS0_7binder1INS0_19iterator_connect_opINS_2ip3tcpENS_15any_io_executorENS6_23basic_resolver_iteratorIS7_EENS0_25default_connect_conditionENS0_15wrapped_handlerINS_10io_context6strandESt5_BindIFMN11websocketpp9transport4asio8endpointINSG_6config15asio_tls_client16transport_configEEEFvSt10shared_ptrINSI_10connectionISM_EEESO_INS_20basic_waitable_timerINSt6chrono3_V212steady_clockENS_11wait_traitsISV_EES8_EEESt8functionIFvRKSt10error_codeEES13_EPSN_SR_SZ_S15_St12_PlaceholderILi1EEEENS0_26is_continuation_if_runningEEEEES11_EEEES1C_EENSD_19basic_executor_typeISaIvELm0EEEE11do_completeEPvPNS0_19scheduler_operationES13_m
libsioclient_tls.so.1:_ZN4asio6detail18completion_handlerINS0_17rewrapped_handlerINS0_7binder1INS0_15wrapped_handlerINS_10io_context6strandESt5_BindIFMN11websocketpp9transport4asio10connectionINS8_6config15asio_tls_client16transport_configEEEFvSt10shared_ptrINS_20basic_waitable_timerINSt6chrono3_V212steady_clockENS_11wait_traitsISK_EENS_15any_io_executorEEEESt8functionIFvRKSt10error_codeEEST_ESG_ISF_ESP_SV_St12_PlaceholderILi1EEEENS0_26is_continuation_if_runningEEESR_EES12_EENS5_19basic_executor_typeISaIvELm0EEEE11do_completeEPvPNS0_19scheduler_operationEST_m
libsioclient_tls.so.1:_ZN4asio6detail18completion_handlerINS0_17rewrapped_handlerINS0_7binder1INS0_19iterator_connect_opINS_2ip3tcpENS_15any_io_executorENS5_23basic_resolver_iteratorIS6_EENS0_25default_connect_conditionENS0_15wrapped_handlerINS_10io_context6strandESt5_BindIFMN11websocketpp9transport4asio8endpointINSF_6config15asio_tls_client16transport_configEEEFvSt10shared_ptrINSH_10connectionISL_EEESN_INS_20basic_waitable_timerINSt6chrono3_V212steady_clockENS_11wait_traitsISU_EES7_EEESt8functionIFvRKSt10error_codeEES12_EPSM_SQ_SY_S14_St12_PlaceholderILi1EEEENS0_26is_continuation_if_runningEEEEES10_EES1B_EENSC_19basic_executor_typeISaIvELm0EEEE11do_completeEPvPNS0_19scheduler_operationES12_m
libsioclient_tls.so.1:_ZN4asio6detail18completion_handlerINS0_17rewrapped_handlerINS0_7binder1INS_3ssl6detail5io_opINS_19basic_stream_socketINS_2ip3tcpENS_15any_io_executorEEENS5_11shutdown_opENS0_15wrapped_handlerINS_10io_context6strandESt8functionIFvRKSt10error_codeEENS0_26is_continuation_if_runningEEEEESH_EESL_EENSE_19basic_executor_typeISaIvELm0EEEE11do_completeEPvPNS0_19scheduler_operationESJ_m
libsioclient_tls.so.1:_ZN4asio6detail18completion_handlerINS0_17rewrapped_handlerINS0_7binder1INS_3ssl6detail5io_opINS_19basic_stream_socketINS_2ip3tcpENS_15any_io_executorEEENS5_12handshake_opENS0_15wrapped_handlerINS_10io_context6strandESt5_BindIFMN11websocketpp9transport4asio10tls_socket10connectionEFvSt8functionIFvRKSt10error_codeEESP_ESt10shared_ptrISL_ESR_St12_PlaceholderILi1EEEENS0_26is_continuation_if_runningEEEEESN_EESZ_EENSE_19basic_executor_typeISaIvELm0EEEE11do_completeEPvPNS0_19scheduler_operationESP_m
libsioclient_tls.so.1:_ZN4asio6detail18completion_handlerINS0_17rewrapped_handlerINS0_7binder1INS_3ssl6detail5io_opINS_19basic_stream_socketINS_2ip3tcpENS_15any_io_executorEEENS5_7read_opINS_17mutable_buffers_1EEENS0_7read_opINS4_6streamISB_EESD_PKNS_14mutable_bufferENS0_19transfer_at_least_tENS0_15wrapped_handlerINS_10io_context6strandEN11websocketpp9transport4asio20custom_alloc_handlerISt5_BindIFMNSR_10connectionINSP_6config15asio_tls_client16transport_configEEEFvSt8functionIFvRKSt10error_codemEES12_mESt10shared_ptrISY_ES14_St12_PlaceholderILi1EES19_ILi2EEEEEENS0_26is_continuation_if_runningEEEEEEES10_EES1E_EENSN_19basic_executor_typeISaIvELm0EEEE11do_completeEPvPNS0_19scheduler_operationES12_m
libsioclient_tls.so.1:_ZN4asio6detail18completion_handlerINS0_17rewrapped_handlerINS0_7binder1INS_3ssl6detail5io_opINS_19basic_stream_socketINS_2ip3tcpENS_15any_io_executorEEENS5_8write_opINS0_16prepared_buffersINS_12const_bufferELm64EEEEENS0_8write_opINS4_6streamISB_EESt6vectorISE_SaISE_EEN9__gnu_cxx17__normal_iteratorIPKSE_SM_EENS0_14transfer_all_tENS0_15wrapped_handlerINS_10io_context6strandEN11websocketpp9transport4asio20custom_alloc_handlerISt5_BindIFMNSY_10connectionINSW_6config15asio_tls_client16transport_configEEEFvSt8functionIFvRKSt10error_codeEES19_mESt10shared_ptrIS15_ES1B_St12_PlaceholderILi1EES1G_ILi2EEEEEENS0_26is_continuation_if_runningEEEEEEES17_EES1L_EENSU_19basic_executor_typeISaIvELm0EEEE11do_completeEPvPNS0_19scheduler_operationES19_m
libsioclient_tls.so.1:_ZN4asio6detail18completion_handlerINS0_17rewrapped_handlerINS0_7binder2INS0_15wrapped_handlerINS_10io_context6strandESt5_BindIFMN11websocketpp9transport4asio8endpointINS8_6config15asio_tls_client16transport_configEEEFvSt10shared_ptrINSA_10connectionISE_EEESG_INS_20basic_waitable_timerINSt6chrono3_V212steady_clockENS_11wait_traitsISN_EENS_15any_io_executorEEEESt8functionIFvRKSt10error_codeEESW_NS_2ip23basic_resolver_iteratorINSZ_3tcpEEEEPSF_SJ_SS_SY_St12_PlaceholderILi1EES16_ILi2EEEENS0_26is_continuation_if_runningEEESU_NSZ_22basic_resolver_resultsIS11_EEEES1A_EENS5_19basic_executor_typeISaIvELm0EEEE11do_completeEPvPNS0_19scheduler_operationESW_m
libsioclient_tls.so.1:_ZN4asio6detail18completion_handlerINS0_17rewrapped_handlerINS0_7binder2INS0_29read_until_delim_string_op_v1INS_19basic_stream_socketINS_2ip3tcpENS_15any_io_executorEEENS_19basic_streambuf_refISaIcEEENS0_15wrapped_handlerINS_10io_context6strandESt5_BindIFMN11websocketpp9transport4asio10connectionINSH_6config15asio_tls_client16transport_configEEEFvSt8functionIFvRKSt10error_codeEESS_mESt10shared_ptrISO_ESU_St12_PlaceholderILi1EESZ_ILi2EEEENS0_26is_continuation_if_runningEEEEESQ_mEES13_EENSE_19basic_executor_typeISaIvELm0EEEE11do_completeEPvPNS0_19scheduler_operationESS_m
libsioclient_tls.so.1:_ZN4asio6detail18completion_handlerINS0_17rewrapped_handlerINS0_7binder2INS0_8write_opINS_19basic_stream_socketINS_2ip3tcpENS_15any_io_executorEEENS_14mutable_bufferEPKSA_NS0_14transfer_all_tENS_3ssl6detail5io_opIS9_NSF_11shutdown_opENS0_15wrapped_handlerINS_10io_context6strandESt8functionIFvRKSt10error_codeEENS0_26is_continuation_if_runningEEEEEEESM_mEESQ_EENSJ_19basic_executor_typeISaIvELm0EEEE11do_completeEPvPNS0_19scheduler_operationESO_m
libsioclient_tls.so.1:_ZN4asio6detail18completion_handlerINS0_17rewrapped_handlerINS0_7binder2INS0_8write_opINS_19basic_stream_socketINS_2ip3tcpENS_15any_io_executorEEENS_14mutable_bufferEPKSA_NS0_14transfer_all_tENS_3ssl6detail5io_opIS9_NSF_12handshake_opENS0_15wrapped_handlerINS_10io_context6strandESt5_BindIFMN11websocketpp9transport4asio10tls_socket10connectionEFvSt8functionIFvRKSt10error_codeEESU_ESt10shared_ptrISQ_ESW_St12_PlaceholderILi1EEEENS0_26is_continuation_if_runningEEEEEEESS_mEES14_EENSJ_19basic_executor_typeISaIvELm0EEEE11do_completeEPvPNS0_19scheduler_operationESU_m
libsioclient_tls.so.1:_ZN4asio6detail18completion_handlerINS0_17rewrapped_handlerINS0_7binder2INS0_8write_opINS_19basic_stream_socketINS_2ip3tcpENS_15any_io_executorEEENS_14mutable_bufferEPKSA_NS0_14transfer_all_tENS_3ssl6detail5io_opIS9_NSF_7read_opINS_17mutable_buffers_1EEENS0_7read_opINSE_6streamIS9_EESI_SC_NS0_19transfer_at_least_tENS0_15wrapped_handlerINS_10io_context6strandEN11websocketpp9transport4asio20custom_alloc_handlerISt5_BindIFMNST_10connectionINSR_6config15asio_tls_client16transport_configEEEFvSt8functionIFvRKSt10error_codemEES14_mESt10shared_ptrIS10_ES16_St12_PlaceholderILi1EES1B_ILi2EEEEEENS0_26is_continuation_if_runningEEEEEEEEES12_mEES1G_EENSP_19basic_executor_typeISaIvELm0EEEE11do_completeEPvPNS0_19scheduler_operationES14_m
libsioclient_tls.so.1:_ZN4asio6detail18completion_handlerINS0_17rewrapped_handlerINS0_7binder2INS0_8write_opINS_19basic_stream_socketINS_2ip3tcpENS_15any_io_executorEEENS_14mutable_bufferEPKSA_NS0_14transfer_all_tENS_3ssl6detail5io_opIS9_NSF_8write_opINS0_16prepared_buffersINS_12const_bufferELm64EEEEENS4_INSE_6streamIS9_EESt6vectorISJ_SaISJ_EEN9__gnu_cxx17__normal_iteratorIPKSJ_SQ_EESD_NS0_15wrapped_handlerINS_10io_context6strandEN11websocketpp9transport4asio20custom_alloc_handlerISt5_BindIFMNS11_10connectionINSZ_6config15asio_tls_client16transport_configEEEFvSt8functionIFvRKSt10error_codeEES1C_mESt10shared_ptrIS18_ES1E_St12_PlaceholderILi1EES1J_ILi2EEEEEENS0_26is_continuation_if_runningEEEEEEEEES1A_mEES1O_EENSX_19basic_executor_typeISaIvELm0EEEE11do_completeEPvPNS0_19scheduler_operationES1C_m
libsioclient_tls.so.1:_ZN4asio6detail18completion_handlerINS0_17rewrapped_handlerINS0_7binder2INS0_8write_opINS_19basic_stream_socketINS_2ip3tcpENS_15any_io_executorEEESt6vectorINS_12const_bufferESaISB_EEN9__gnu_cxx17__normal_iteratorIPKSB_SD_EENS0_14transfer_all_tENS0_15wrapped_handlerINS_10io_context6strandESt5_BindIFMN11websocketpp9transport4asio10connectionINSO_6config15asio_tls_client16transport_configEEEFvSt8functionIFvRKSt10error_codeEESZ_ESt10shared_ptrISV_ES11_St12_PlaceholderILi1EEEENS0_26is_continuation_if_runningEEEEESX_mEES19_EENSL_19basic_executor_typeISaIvELm0EEEE11do_completeEPvPNS0_19scheduler_operationESZ_m
libsioclient_tls.so.1:_ZN4asio6detail18completion_handlerINS0_17rewrapped_handlerINS0_7binder2INS_3ssl6detail5io_opINS_19basic_stream_socketINS_2ip3tcpENS_15any_io_executorEEENS5_11shutdown_opENS0_15wrapped_handlerINS_10io_context6strandESt8functionIFvRKSt10error_codeEENS0_26is_continuation_if_runningEEEEESH_mEESL_EENSE_19basic_executor_typeISaIvELm0EEEE11do_completeEPvPNS0_19scheduler_operationESJ_m
libsioclient_tls.so.1:_ZN4asio6detail18completion_handlerINS0_17rewrapped_handlerINS0_7binder2INS_3ssl6detail5io_opINS_19basic_stream_socketINS_2ip3tcpENS_15any_io_executorEEENS5_12handshake_opENS0_15wrapped_handlerINS_10io_context6strandESt5_BindIFMN11websocketpp9transport4asio10tls_socket10connectionEFvSt8functionIFvRKSt10error_codeEESP_ESt10shared_ptrISL_ESR_St12_PlaceholderILi1EEEENS0_26is_continuation_if_runningEEEEESN_mEESZ_EENSE_19basic_executor_typeISaIvELm0EEEE11do_completeEPvPNS0_19scheduler_operationESP_m
libsioclient_tls.so.1:_ZN4asio6detail18completion_handlerINS0_17rewrapped_handlerINS0_7binder2INS_3ssl6detail5io_opINS_19basic_stream_socketINS_2ip3tcpENS_15any_io_executorEEENS5_7read_opINS_17mutable_buffers_1EEENS0_7read_opINS4_6streamISB_EESD_PKNS_14mutable_bufferENS0_19transfer_at_least_tENS0_15wrapped_handlerINS_10io_context6strandEN11websocketpp9transport4asio20custom_alloc_handlerISt5_BindIFMNSR_10connectionINSP_6config15asio_tls_client16transport_configEEEFvSt8functionIFvRKSt10error_codemEES12_mESt10shared_ptrISY_ES14_St12_PlaceholderILi1EES19_ILi2EEEEEENS0_26is_continuation_if_runningEEEEEEES10_mEES1E_EENSN_19basic_executor_typeISaIvELm0EEEE11do_completeEPvPNS0_19scheduler_operationES12_m
libsioclient_tls.so.1:_ZN4asio6detail18completion_handlerINS0_17rewrapped_handlerINS0_7binder2INS_3ssl6detail5io_opINS_19basic_stream_socketINS_2ip3tcpENS_15any_io_executorEEENS5_8write_opINS0_16prepared_buffersINS_12const_bufferELm64EEEEENS0_8write_opINS4_6streamISB_EESt6vectorISE_SaISE_EEN9__gnu_cxx17__normal_iteratorIPKSE_SM_EENS0_14transfer_all_tENS0_15wrapped_handlerINS_10io_context6strandEN11websocketpp9transport4asio20custom_alloc_handlerISt5_BindIFMNSY_10connectionINSW_6config15asio_tls_client16transport_configEEEFvSt8functionIFvRKSt10error_codeEES19_mESt10shared_ptrIS15_ES1B_St12_PlaceholderILi1EES1G_ILi2EEEEEENS0_26is_continuation_if_runningEEEEEEES17_mEES1L_EENSU_19basic_executor_typeISaIvELm0EEEE11do_completeEPvPNS0_19scheduler_operationES19_m
libsioclient_tls.so.1:_ZN4asio6detail18completion_handlerINS0_7binder1ISt5_BindIFMN11websocketpp9transport4asio10connectionINS4_6config15asio_tls_client16transport_configEEEFvSt10shared_ptrINS_20basic_waitable_timerINSt6chrono3_V212steady_clockENS_11wait_traitsISG_EENS_15any_io_executorEEEESt8functionIFvRKSt10error_codeEESP_ESC_ISB_ESL_SR_St12_PlaceholderILi1EEEESN_EENS_10io_context19basic_executor_typeISaIvELm0EEEE11do_completeEPvPNS0_19scheduler_operationESP_m
libsioclient_tls.so.1:_ZN4asio6detail18completion_handlerINS0_7binder1ISt5_BindIFMN11websocketpp9transport4asio10tls_socket10connectionEFvSt8functionIFvRKSt10error_codeEESC_ESt10shared_ptrIS8_ESE_St12_PlaceholderILi1EEEESA_EENS_10io_context19basic_executor_typeISaIvELm0EEEE11do_completeEPvPNS0_19scheduler_operationESC_m
libsioclient_tls.so.1:_ZN4asio6detail18completion_handlerINS0_7binder1ISt8functionIFvRKSt10error_codeEES4_EENS_10io_context19basic_executor_typeISaIvELm0EEEE11do_completeEPvPNS0_19scheduler_operationES6_m
libsioclient_tls.so.1:_ZN4asio6detail18completion_handlerINS0_7binder2IN11websocketpp9transport4asio20custom_alloc_handlerISt5_BindIFMNS5_10connectionINS3_6config15asio_tls_client16transport_configEEEFvSt8functionIFvRKSt10error_codeEESG_mESt10shared_ptrISC_ESI_St12_PlaceholderILi1EESN_ILi2EEEEEESE_mEENS_10io_context19basic_executor_typeISaIvELm0EEEE11do_completeEPvPNS0_19scheduler_operationESG_m
libsioclient_tls.so.1:_ZN4asio6detail18completion_handlerINS0_7binder2IN11websocketpp9transport4asio20custom_alloc_handlerISt5_BindIFMNS5_10connectionINS3_6config15asio_tls_client16transport_configEEEFvSt8functionIFvRKSt10error_codemEESG_mESt10shared_ptrISC_ESI_St12_PlaceholderILi1EESN_ILi2EEEEEESE_mEENS_10io_context19basic_executor_typeISaIvELm0EEEE11do_completeEPvPNS0_19scheduler_operationESG_m
libsioclient_tls.so.1:_ZN4asio6detail18completion_handlerINS0_7binder2ISt5_BindIFMN11websocketpp9transport4asio10connectionINS4_6config15asio_tls_client16transport_configEEEFvSt8functionIFvRKSt10error_codeEESF_ESt10shared_ptrISB_ESH_St12_PlaceholderILi1EEEESD_mEENS_10io_context19basic_executor_typeISaIvELm0EEEE11do_completeEPvPNS0_19scheduler_operationESF_m
libsioclient_tls.so.1:_ZN4asio6detail18completion_handlerINS0_7binder2ISt5_BindIFMN11websocketpp9transport4asio10connectionINS4_6config15asio_tls_client16transport_configEEEFvSt8functionIFvRKSt10error_codeEESF_mESt10shared_ptrISB_ESH_St12_PlaceholderILi1EESM_ILi2EEEESD_mEENS_10io_context19basic_executor_typeISaIvELm0EEEE11do_completeEPvPNS0_19scheduler_operationESF_m
libsioclient_tls.so.1:_ZN4asio6detail18completion_handlerINS0_7binder2ISt5_BindIFMN11websocketpp9transport4asio8endpointINS4_6config15asio_tls_client16transport_configEEEFvSt10shared_ptrINS6_10connectionISA_EEESC_INS_20basic_waitable_timerINSt6chrono3_V212steady_clockENS_11wait_traitsISJ_EENS_15any_io_executorEEEESt8functionIFvRKSt10error_codeEESS_EPSB_SF_SO_SU_St12_PlaceholderILi1EEEESQ_NS_2ip23basic_resolver_iteratorINS12_3tcpEEEEENS_10io_context19basic_executor_typeISaIvELm0EEEE11do_completeEPvPNS0_19scheduler_operationESS_m
libsioclient_tls.so.1:_ZN4asio6detail18completion_handlerINS0_7binder2ISt5_BindIFMN11websocketpp9transport4asio8endpointINS4_6config15asio_tls_client16transport_configEEEFvSt10shared_ptrINS6_10connectionISA_EEESC_INS_20basic_waitable_timerINSt6chrono3_V212steady_clockENS_11wait_traitsISJ_EENS_15any_io_executorEEEESt8functionIFvRKSt10error_codeEESS_NS_2ip23basic_resolver_iteratorINSV_3tcpEEEEPSB_SF_SO_SU_St12_PlaceholderILi1EES12_ILi2EEEESQ_NSV_22basic_resolver_resultsISX_EEEENS_10io_context19basic_executor_typeISaIvELm0EEEE11do_completeEPvPNS0_19scheduler_operationESS_m
libsioclient_tls.so.1:_ZN4asio6detail18completion_handlerISt5_BindIFMN3sio11client_implEFvRKNSt7__cxx1112basic_stringIcSt11char_traitsIcESaIcEEESC_EPS4_SA_SA_EENS_10io_context19basic_executor_typeISaIvELm0EEEE11do_completeEPvPNS0_19scheduler_operationERKSt10error_codem
libsioclient_tls.so.1:_ZN4asio6detail18completion_handlerISt5_BindIFMN3sio11client_implEFvRKSt10shared_ptrIKNSt7__cxx1112basic_stringIcSt11char_traitsIcESaIcEEEEN11websocketpp5frame6opcode5valueEEPS4_SD_SJ_EENS_10io_context19basic_executor_typeISaIvELm0EEEE11do_completeEPvPNS0_19scheduler_operationERKSt10error_codem
libsioclient_tls.so.1:_ZN4asio6detail18completion_handlerISt5_BindIFMN3sio11client_implEFvRKtRKNSt7__cxx1112basic_stringIcSt11char_traitsIcESaIcEEEEPS4_tPKcEENS_10io_context19basic_executor_typeISaIvELm0EEEE11do_completeEPvPNS0_19scheduler_operationERKSt10error_codem
libsioclient_tls.so.1:_ZN4asio6detail18completion_handlerISt8functionIFvvEENS_10io_context19basic_executor_typeISaIvELm0EEEE11do_completeEPvPNS0_19scheduler_operationERKSt10error_codem
libsioclient_tls.so.1:_ZN4asio6detail22executor_function_view8completeINS0_7binder0INS0_7binder1INS0_19iterator_connect_opINS_2ip3tcpENS_15any_io_executorENS6_23basic_resolver_iteratorIS7_EENS0_25default_connect_conditionENS0_15wrapped_handlerINS_10io_context6strandESt5_BindIFMN11websocketpp9transport4asio8endpointINSG_6config15asio_tls_client16transport_configEEEFvSt10shared_ptrINSI_10connectionISM_EEESO_INS_20basic_waitable_timerINSt6chrono3_V212steady_clockENS_11wait_traitsISV_EES8_EEESt8functionIFvRKSt10error_codeEES13_EPSN_SR_SZ_S15_St12_PlaceholderILi1EEEENS0_26is_continuation_if_runningEEEEES11_EEEEEEvPv
libsioclient_tls.so.1:_ZN4asio6detail22executor_function_view8completeINS0_7binder1INS0_15wrapped_handlerINS_10io_context6strandESt5_BindIFMN11websocketpp9transport4asio10connectionINS8_6config15asio_tls_client16transport_configEEEFvSt10shared_ptrINS_20basic_waitable_timerINSt6chrono3_V212steady_clockENS_11wait_traitsISK_EENS_15any_io_executorEEEESt8functionIFvRKSt10error_codeEEST_ESG_ISF_ESP_SV_St12_PlaceholderILi1EEEENS0_26is_continuation_if_runningEEESR_EEEEvPv
libsioclient_tls.so.1:_ZN4asio6detail22executor_function_view8completeINS0_7binder1INS0_19iterator_connect_opINS_2ip3tcpENS_15any_io_executorENS5_23basic_resolver_iteratorIS6_EENS0_25default_connect_conditionENS0_15wrapped_handlerINS_10io_context6strandESt5_BindIFMN11websocketpp9transport4asio8endpointINSF_6config15asio_tls_client16transport_configEEEFvSt10shared_ptrINSH_10connectionISL_EEESN_INS_20basic_waitable_timerINSt6chrono3_V212steady_clockENS_11wait_traitsISU_EES7_EEESt8functionIFvRKSt10error_codeEES12_EPSM_SQ_SY_S14_St12_PlaceholderILi1EEEENS0_26is_continuation_if_runningEEEEES10_EEEEvPv
libsioclient_tls.so.1:_ZN4asio6detail22executor_function_view8completeINS0_7binder1INS_3ssl6detail5io_opINS_19basic_stream_socketINS_2ip3tcpENS_15any_io_executorEEENS5_11shutdown_opENS0_15wrapped_handlerINS_10io_context6strandESt8functionIFvRKSt10error_codeEENS0_26is_continuation_if_runningEEEEESH_EEEEvPv
libsioclient_tls.so.1:_ZN4asio6detail22executor_function_view8completeINS0_7binder1INS_3ssl6detail5io_opINS_19basic_stream_socketINS_2ip3tcpENS_15any_io_executorEEENS5_11shutdown_opESt8functionIFvRKSt10error_codeEEEESE_EEEEvPv
libsioclient_tls.so.1:_ZN4asio6detail22executor_function_view8completeINS0_7binder1INS_3ssl6detail5io_opINS_19basic_stream_socketINS_2ip3tcpENS_15any_io_executorEEENS5_12handshake_opENS0_15wrapped_handlerINS_10io_context6strandESt5_BindIFMN11websocketpp9transport4asio10tls_socket10connectionEFvSt8functionIFvRKSt10error_codeEESP_ESt10shared_ptrISL_ESR_St12_PlaceholderILi1EEEENS0_26is_continuation_if_runningEEEEESN_EEEEvPv
libsioclient_tls.so.1:_ZN4asio6detail22executor_function_view8completeINS0_7binder1INS_3ssl6detail5io_opINS_19basic_stream_socketINS_2ip3tcpENS_15any_io_executorEEENS5_12handshake_opESt5_BindIFMN11websocketpp9transport4asio10tls_socket10connectionEFvSt8functionIFvRKSt10error_codeEESM_ESt10shared_ptrISI_ESO_St12_PlaceholderILi1EEEEEESK_EEEEvPv
libsioclient_tls.so.1:_ZN4asio6detail22executor_function_view8completeINS0_7binder1INS_3ssl6detail5io_opINS_19basic_stream_socketINS_2ip3tcpENS_15any_io_executorEEENS5_7read_opINS_17mutable_buffers_1EEENS0_7read_opINS4_6streamISB_EESD_PKNS_14mutable_bufferENS0_19transfer_at_least_tENS0_15wrapped_handlerINS_10io_context6strandEN11websocketpp9transport4asio20custom_alloc_handlerISt5_BindIFMNSR_10connectionINSP_6config15asio_tls_client16transport_configEEEFvSt8functionIFvRKSt10error_codemEES12_mESt10shared_ptrISY_ES14_St12_PlaceholderILi1EES19_ILi2EEEEEENS0_26is_continuation_if_runningEEEEEEES10_EEEEvPv
libsioclient_tls.so.1:_ZN4asio6detail22executor_function_view8completeINS0_7binder1INS_3ssl6detail5io_opINS_19basic_stream_socketINS_2ip3tcpENS_15any_io_executorEEENS5_8write_opINS0_16prepared_buffersINS_12const_bufferELm64EEEEENS0_8write_opINS4_6streamISB_EESt6vectorISE_SaISE_EEN9__gnu_cxx17__normal_iteratorIPKSE_SM_EENS0_14transfer_all_tENS0_15wrapped_handlerINS_10io_context6strandEN11websocketpp9transport4asio20custom_alloc_handlerISt5_BindIFMNSY_10connectionINSW_6config15asio_tls_client16transport_configEEEFvSt8functionIFvRKSt10error_codeEES19_mESt10shared_ptrIS15_ES1B_St12_PlaceholderILi1EES1G_ILi2EEEEEENS0_26is_continuation_if_runningEEEEEEES17_EEEEvPv
libsioclient_tls.so.1:_ZN4asio6detail22executor_function_view8completeINS0_7binder1ISt5_BindIFMN3sio11client_implEFvRKSt10error_codeEPS6_St12_PlaceholderILi1EEEES7_EEEEvPv
libsioclient_tls.so.1:_ZN4asio6detail22executor_function_view8completeINS0_7binder1ISt5_BindIFMN3sio6socket4implEFvRKSt10error_codeEPS7_St12_PlaceholderILi1EEEES8_EEEEvPv
libsioclient_tls.so.1:_ZN4asio6detail22executor_function_view8completeINS0_7binder1ISt5_BindIFMN3sio6socket4implEFvvEPS7_EESt10error_codeEEEEvPv
libsioclient_tls.so.1:_ZN4asio6detail22executor_function_view8completeINS0_7binder2INS0_15wrapped_handlerINS_10io_context6strandESt5_BindIFMN11websocketpp9transport4asio8endpointINS8_6config15asio_tls_client16transport_configEEEFvSt10shared_ptrINSA_10connectionISE_EEESG_INS_20basic_waitable_timerINSt6chrono3_V212steady_clockENS_11wait_traitsISN_EENS_15any_io_executorEEEESt8functionIFvRKSt10error_codeEESW_NS_2ip23basic_resolver_iteratorINSZ_3tcpEEEEPSF_SJ_SS_SY_St12_PlaceholderILi1EES16_ILi2EEEENS0_26is_continuation_if_runningEEESU_NSZ_22basic_resolver_resultsIS11_EEEEEEvPv
libsioclient_tls.so.1:_ZN4asio6detail22executor_function_view8completeINS0_7binder2INS0_29read_until_delim_string_op_v1INS_19basic_stream_socketINS_2ip3tcpENS_15any_io_executorEEENS_19basic_streambuf_refISaIcEEENS0_15wrapped_handlerINS_10io_context6strandESt5_BindIFMN11websocketpp9transport4asio10connectionINSH_6config15asio_tls_client16transport_configEEEFvSt8functionIFvRKSt10error_codeEESS_mESt10shared_ptrISO_ESU_St12_PlaceholderILi1EESZ_ILi2EEEENS0_26is_continuation_if_runningEEEEESQ_mEEEEvPv
libsioclient_tls.so.1:_ZN4asio6detail22executor_function_view8completeINS0_7binder2INS0_8write_opINS_19basic_stream_socketINS_2ip3tcpENS_15any_io_executorEEENS_14mutable_bufferEPKSA_NS0_14transfer_all_tENS_3ssl6detail5io_opIS9_NSF_11shutdown_opENS0_15wrapped_handlerINS_10io_context6strandESt8functionIFvRKSt10error_codeEENS0_26is_continuation_if_runningEEEEEEESM_mEEEEvPv
libsioclient_tls.so.1:_ZN4asio6detail22executor_function_view8completeINS0_7binder2INS0_8write_opINS_19basic_stream_socketINS_2ip3tcpENS_15any_io_executorEEENS_14mutable_bufferEPKSA_NS0_14transfer_all_tENS_3ssl6detail5io_opIS9_NSF_11shutdown_opESt8functionIFvRKSt10error_codeEEEEEESJ_mEEEEvPv
libsioclient_tls.so.1:_ZN4asio6detail22executor_function_view8completeINS0_7binder2INS0_8write_opINS_19basic_stream_socketINS_2ip3tcpENS_15any_io_executorEEENS_14mutable_bufferEPKSA_NS0_14transfer_all_tENS_3ssl6detail5io_opIS9_NSF_12handshake_opENS0_15wrapped_handlerINS_10io_context6strandESt5_BindIFMN11websocketpp9transport4asio10tls_socket10connectionEFvSt8functionIFvRKSt10error_codeEESU_ESt10shared_ptrISQ_ESW_St12_PlaceholderILi1EEEENS0_26is_continuation_if_runningEEEEEEESS_mEEEEvPv
libsioclient_tls.so.1:_ZN4asio6detail22executor_function_view8completeINS0_7binder2INS0_8write_opINS_19basic_stream_socketINS_2ip3tcpENS_15any_io_executorEEENS_14mutable_bufferEPKSA_NS0_14transfer_all_tENS_3ssl6detail5io_opIS9_NSF_12handshake_opESt5_BindIFMN11websocketpp9transport4asio10tls_socket10connectionEFvSt8functionIFvRKSt10error_codeEESR_ESt10shared_ptrISN_EST_St12_PlaceholderILi1EEEEEEEESP_mEEEEvPv
libsioclient_tls.so.1:_ZN4asio6detail22executor_function_view8completeINS0_7binder2INS0_8write_opINS_19basic_stream_socketINS_2ip3tcpENS_15any_io_executorEEENS_14mutable_bufferEPKSA_NS0_14transfer_all_tENS_3ssl6detail5io_opIS9_NSF_7read_opINS_17mutable_buffers_1EEENS0_7read_opINSE_6streamIS9_EESI_SC_NS0_19transfer_at_least_tENS0_15wrapped_handlerINS_10io_context6strandEN11websocketpp9transport4asio20custom_alloc_handlerISt5_BindIFMNST_10connectionINSR_6config15asio_tls_client16transport_configEEEFvSt8functionIFvRKSt10error_codemEES14_mESt10shared_ptrIS10_ES16_St12_PlaceholderILi1EES1B_ILi2EEEEEENS0_26is_continuation_if_runningEEEEEEEEES12_mEEEEvPv
libsioclient_tls.so.1:_ZN4asio6detail22executor_function_view8completeINS0_7binder2INS0_8write_opINS_19basic_stream_socketINS_2ip3tcpENS_15any_io_executorEEENS_14mutable_bufferEPKSA_NS0_14transfer_all_tENS_3ssl6detail5io_opIS9_NSF_8write_opINS0_16prepared_buffersINS_12const_bufferELm64EEEEENS4_INSE_6streamIS9_EESt6vectorISJ_SaISJ_EEN9__gnu_cxx17__normal_iteratorIPKSJ_SQ_EESD_NS0_15wrapped_handlerINS_10io_context6strandEN11websocketpp9transport4asio20custom_alloc_handlerISt5_BindIFMNS11_10connectionINSZ_6config15asio_tls_client16transport_configEEEFvSt8functionIFvRKSt10error_codeEES1C_mESt10shared_ptrIS18_ES1E_St12_PlaceholderILi1EES1J_ILi2EEEEEENS0_26is_continuation_if_runningEEEEEEEEES1A_mEEEEvPv
libsioclient_tls.so.1:_ZN4asio6detail22executor_function_view8completeINS0_7binder2INS0_8write_opINS_19basic_stream_socketINS_2ip3tcpENS_15any_io_executorEEESt6vectorINS_12const_bufferESaISB_EEN9__gnu_cxx17__normal_iteratorIPKSB_SD_EENS0_14transfer_all_tENS0_15wrapped_handlerINS_10io_context6strandESt5_BindIFMN11websocketpp9transport4asio10connectionINSO_6config15asio_tls_client16transport_configEEEFvSt8functionIFvRKSt10error_codeEESZ_ESt10shared_ptrISV_ES11_St12_PlaceholderILi1EEEENS0_26is_continuation_if_runningEEEEESX_mEEEEvPv
libsioclient_tls.so.1:_ZN4asio6detail22executor_function_view8completeINS0_7binder2INS_3ssl6detail5io_opINS_19basic_stream_socketINS_2ip3tcpENS_15any_io_executorEEENS5_11shutdown_opENS0_15wrapped_handlerINS_10io_context6strandESt8functionIFvRKSt10error_codeEENS0_26is_continuation_if_runningEEEEESH_mEEEEvPv
libsioclient_tls.so.1:_ZN4asio6detail22executor_function_view8completeINS0_7binder2INS_3ssl6detail5io_opINS_19basic_stream_socketINS_2ip3tcpENS_15any_io_executorEEENS5_11shutdown_opESt8functionIFvRKSt10error_codeEEEESE_mEEEEvPv
libsioclient_tls.so.1:_ZN4asio6detail22executor_function_view8completeINS0_7binder2INS_3ssl6detail5io_opINS_19basic_stream_socketINS_2ip3tcpENS_15any_io_executorEEENS5_12handshake_opENS0_15wrapped_handlerINS_10io_context6strandESt5_BindIFMN11websocketpp9transport4asio10tls_socket10connectionEFvSt8functionIFvRKSt10error_codeEESP_ESt10shared_ptrISL_ESR_St12_PlaceholderILi1EEEENS0_26is_continuation_if_runningEEEEESN_mEEEEvPv
libsioclient_tls.so.1:_ZN4asio6detail22executor_function_view8completeINS0_7binder2INS_3ssl6detail5io_opINS_19basic_stream_socketINS_2ip3tcpENS_15any_io_executorEEENS5_12handshake_opESt5_BindIFMN11websocketpp9transport4asio10tls_socket10connectionEFvSt8functionIFvRKSt10error_codeEESM_ESt10shared_ptrISI_ESO_St12_PlaceholderILi1EEEEEESK_mEEEEvPv
libsioclient_tls.so.1:_ZN4asio6detail22executor_function_view8completeINS0_7binder2INS_3ssl6detail5io_opINS_19basic_stream_socketINS_2ip3tcpENS_15any_io_executorEEENS5_7read_opINS_17mutable_buffers_1EEENS0_7read_opINS4_6streamISB_EESD_PKNS_14mutable_bufferENS0_19transfer_at_least_tENS0_15wrapped_handlerINS_10io_context6strandEN11websocketpp9transport4asio20custom_alloc_handlerISt5_BindIFMNSR_10connectionINSP_6config15asio_tls_client16transport_configEEEFvSt8functionIFvRKSt10error_codemEES12_mESt10shared_ptrISY_ES14_St12_PlaceholderILi1EES19_ILi2EEEEEENS0_26is_continuation_if_runningEEEEEEES10_mEEEEvPv
libsioclient_tls.so.1:_ZN4asio6detail22executor_function_view8completeINS0_7binder2INS_3ssl6detail5io_opINS_19basic_stream_socketINS_2ip3tcpENS_15any_io_executorEEENS5_8write_opINS0_16prepared_buffersINS_12const_bufferELm64EEEEENS0_8write_opINS4_6streamISB_EESt6vectorISE_SaISE_EEN9__gnu_cxx17__normal_iteratorIPKSE_SM_EENS0_14transfer_all_tENS0_15wrapped_handlerINS_10io_context6strandEN11websocketpp9transport4asio20custom_alloc_handlerISt5_BindIFMNSY_10connectionINSW_6config15asio_tls_client16transport_configEEEFvSt8functionIFvRKSt10error_codeEES19_mESt10shared_ptrIS15_ES1B_St12_PlaceholderILi1EES1G_ILi2EEEEEENS0_26is_continuation_if_runningEEEEEEES17_mEEEEvPv
libsioclient_tls.so.1:_ZN4asio6detail23reactive_socket_recv_opINS_17mutable_buffers_1ENS0_29read_until_delim_string_op_v1INS_19basic_stream_socketINS_2ip3tcpENS_15any_io_executorEEENS_19basic_streambuf_refISaIcEEENS0_15wrapped_handlerINS_10io_context6strandESt5_BindIFMN11websocketpp9transport4asio10connectionINSG_6config15asio_tls_client16transport_configEEEFvSt8functionIFvRKSt10error_codeEESR_mESt10shared_ptrISN_EST_St12_PlaceholderILi1EESY_ILi2EEEENS0_26is_continuation_if_runningEEEEES7_E11do_completeEPvPNS0_19scheduler_operationESR_m
libsioclient_tls.so.1:_ZN4asio6detail23reactive_socket_recv_opINS_17mutable_buffers_1ENS_3ssl6detail5io_opINS_19basic_stream_socketINS_2ip3tcpENS_15any_io_executorEEENS4_11shutdown_opENS0_15wrapped_handlerINS_10io_context6strandESt8functionIFvRKSt10error_codeEENS0_26is_continuation_if_runningEEEEES9_E11do_completeEPvPNS0_19scheduler_operationESI_m
libsioclient_tls.so.1:_ZN4asio6detail23reactive_socket_recv_opINS_17mutable_buffers_1ENS_3ssl6detail5io_opINS_19basic_stream_socketINS_2ip3tcpENS_15any_io_executorEEENS4_11shutdown_opESt8functionIFvRKSt10error_codeEEEES9_E11do_completeEPvPNS0_19scheduler_operationESF_m
libsioclient_tls.so.1:_ZN4asio6detail23reactive_socket_recv_opINS_17mutable_buffers_1ENS_3ssl6detail5io_opINS_19basic_stream_socketINS_2ip3tcpENS_15any_io_executorEEENS4_12handshake_opENS0_15wrapped_handlerINS_10io_context6strandESt5_BindIFMN11websocketpp9transport4asio10tls_socket10connectionEFvSt8functionIFvRKSt10error_codeEESO_ESt10shared_ptrISK_ESQ_St12_PlaceholderILi1EEEENS0_26is_continuation_if_runningEEEEES9_E11do_completeEPvPNS0_19scheduler_operationESO_m
libsioclient_tls.so.1:_ZN4asio6detail23reactive_socket_recv_opINS_17mutable_buffers_1ENS_3ssl6detail5io_opINS_19basic_stream_socketINS_2ip3tcpENS_15any_io_executorEEENS4_12handshake_opESt5_BindIFMN11websocketpp9transport4asio10tls_socket10connectionEFvSt8functionIFvRKSt10error_codeEESL_ESt10shared_ptrISH_ESN_St12_PlaceholderILi1EEEEEES9_E11do_completeEPvPNS0_19scheduler_operationESL_m
libsioclient_tls.so.1:_ZN4asio6detail23reactive_socket_recv_opINS_17mutable_buffers_1ENS_3ssl6detail5io_opINS_19basic_stream_socketINS_2ip3tcpENS_15any_io_executorEEENS4_7read_opIS2_EENS0_7read_opINS3_6streamISA_EES2_PKNS_14mutable_bufferENS0_19transfer_at_least_tENS0_15wrapped_handlerINS_10io_context6strandEN11websocketpp9transport4asio20custom_alloc_handlerISt5_BindIFMNSP_10connectionINSN_6config15asio_tls_client16transport_configEEEFvSt8functionIFvRKSt10error_codemEES10_mESt10shared_ptrISW_ES12_St12_PlaceholderILi1EES17_ILi2EEEEEENS0_26is_continuation_if_runningEEEEEEES9_E11do_completeEPvPNS0_19scheduler_operationES10_m
libsioclient_tls.so.1:_ZN4asio6detail23reactive_socket_recv_opINS_17mutable_buffers_1ENS_3ssl6detail5io_opINS_19basic_stream_socketINS_2ip3tcpENS_15any_io_executorEEENS4_8write_opINS0_16prepared_buffersINS_12const_bufferELm64EEEEENS0_8write_opINS3_6streamISA_EESt6vectorISD_SaISD_EEN9__gnu_cxx17__normal_iteratorIPKSD_SL_EENS0_14transfer_all_tENS0_15wrapped_handlerINS_10io_context6strandEN11websocketpp9transport4asio20custom_alloc_handlerISt5_BindIFMNSX_10connectionINSV_6config15asio_tls_client16transport_configEEEFvSt8functionIFvRKSt10error_codeEES18_mESt10shared_ptrIS14_ES1A_St12_PlaceholderILi1EES1F_ILi2EEEEEENS0_26is_continuation_if_runningEEEEEEES9_E11do_completeEPvPNS0_19scheduler_operationES18_m
libsioclient_tls.so.1:_ZN4asio6detail23reactive_socket_send_opINS0_16prepared_buffersINS_12const_bufferELm64EEENS0_8write_opINS_19basic_stream_socketINS_2ip3tcpENS_15any_io_executorEEESt6vectorIS3_SaIS3_EEN9__gnu_cxx17__normal_iteratorIPKS3_SD_EENS0_14transfer_all_tENS0_15wrapped_handlerINS_10io_context6strandESt5_BindIFMN11websocketpp9transport4asio10connectionINSO_6config15asio_tls_client16transport_configEEEFvSt8functionIFvRKSt10error_codeEESZ_ESt10shared_ptrISV_ES11_St12_PlaceholderILi1EEEENS0_26is_continuation_if_runningEEEEES9_E11do_completeEPvPNS0_19scheduler_operationESZ_m
libsioclient_tls.so.1:_ZN4asio6detail23reactive_socket_send_opINS_15const_buffers_1ENS0_8write_opINS_19basic_stream_socketINS_2ip3tcpENS_15any_io_executorEEENS_14mutable_bufferEPKS9_NS0_14transfer_all_tENS_3ssl6detail5io_opIS8_NSE_11shutdown_opENS0_15wrapped_handlerINS_10io_context6strandESt8functionIFvRKSt10error_codeEENS0_26is_continuation_if_runningEEEEEEES7_E11do_completeEPvPNS0_19scheduler_operationESN_m
libsioclient_tls.so.1:_ZN4asio6detail23reactive_socket_send_opINS_15const_buffers_1ENS0_8write_opINS_19basic_stream_socketINS_2ip3tcpENS_15any_io_executorEEENS_14mutable_bufferEPKS9_NS0_14transfer_all_tENS_3ssl6detail5io_opIS8_NSE_11shutdown_opESt8functionIFvRKSt10error_codeEEEEEES7_E11do_completeEPvPNS0_19scheduler_operationESK_m
libsioclient_tls.so.1:_ZN4asio6detail23reactive_socket_send_opINS_15const_buffers_1ENS0_8write_opINS_19basic_stream_socketINS_2ip3tcpENS_15any_io_executorEEENS_14mutable_bufferEPKS9_NS0_14transfer_all_tENS_3ssl6detail5io_opIS8_NSE_12handshake_opENS0_15wrapped_handlerINS_10io_context6strandESt5_BindIFMN11websocketpp9transport4asio10tls_socket10connectionEFvSt8functionIFvRKSt10error_codeEEST_ESt10shared_ptrISP_ESV_St12_PlaceholderILi1EEEENS0_26is_continuation_if_runningEEEEEEES7_E11do_completeEPvPNS0_19scheduler_operationEST_m
libsioclient_tls.so.1:_ZN4asio6detail23reactive_socket_send_opINS_15const_buffers_1ENS0_8write_opINS_19basic_stream_socketINS_2ip3tcpENS_15any_io_executorEEENS_14mutable_bufferEPKS9_NS0_14transfer_all_tENS_3ssl6detail5io_opIS8_NSE_12handshake_opESt5_BindIFMN11websocketpp9transport4asio10tls_socket10connectionEFvSt8functionIFvRKSt10error_codeEESQ_ESt10shared_ptrISM_ESS_St12_PlaceholderILi1EEEEEEEES7_E11do_completeEPvPNS0_19scheduler_operationESQ_m
libsioclient_tls.so.1:_ZN4asio6detail23reactive_socket_send_opINS_15const_buffers_1ENS0_8write_opINS_19basic_stream_socketINS_2ip3tcpENS_15any_io_executorEEENS_14mutable_bufferEPKS9_NS0_14transfer_all_tENS_3ssl6detail5io_opIS8_NSE_7read_opINS_17mutable_buffers_1EEENS0_7read_opINSD_6streamIS8_EESH_SB_NS0_19transfer_at_least_tENS0_15wrapped_handlerINS_10io_context6strandEN11websocketpp9transport4asio20custom_alloc_handlerISt5_BindIFMNSS_10connectionINSQ_6config15asio_tls_client16transport_configEEEFvSt8functionIFvRKSt10error_codemEES13_mESt10shared_ptrISZ_ES15_St12_PlaceholderILi1EES1A_ILi2EEEEEENS0_26is_continuation_if_runningEEEEEEEEES7_E11do_completeEPvPNS0_19scheduler_operationES13_m
libsioclient_tls.so.1:_ZN4asio6detail23reactive_socket_send_opINS_15const_buffers_1ENS0_8write_opINS_19basic_stream_socketINS_2ip3tcpENS_15any_io_executorEEENS_14mutable_bufferEPKS9_NS0_14transfer_all_tENS_3ssl6detail5io_opIS8_NSE_8write_opINS0_16prepared_buffersINS_12const_bufferELm64EEEEENS3_INSD_6streamIS8_EESt6vectorISI_SaISI_EEN9__gnu_cxx17__normal_iteratorIPKSI_SP_EESC_NS0_15wrapped_handlerINS_10io_context6strandEN11websocketpp9transport4asio20custom_alloc_handlerISt5_BindIFMNS10_10connectionINSY_6config15asio_tls_client16transport_configEEEFvSt8functionIFvRKSt10error_codeEES1B_mESt10shared_ptrIS17_ES1D_St12_PlaceholderILi1EES1I_ILi2EEEEEENS0_26is_continuation_if_runningEEEEEEEEES7_E11do_completeEPvPNS0_19scheduler_operationES1B_m
libsioclient_tls.so.1:_ZN4asio6detail26reactive_socket_connect_opINS0_19iterator_connect_opINS_2ip3tcpENS_15any_io_executorENS3_23basic_resolver_iteratorIS4_EENS0_25default_connect_conditionENS0_15wrapped_handlerINS_10io_context6strandESt5_BindIFMN11websocketpp9transport4asio8endpointINSD_6config15asio_tls_client16transport_configEEEFvSt10shared_ptrINSF_10connectionISJ_EEESL_INS_20basic_waitable_timerINSt6chrono3_V212steady_clockENS_11wait_traitsISS_EES5_EEESt8functionIFvRKSt10error_codeEES10_EPSK_SO_SW_S12_St12_PlaceholderILi1EEEENS0_26is_continuation_if_runningEEEEES5_E11do_completeEPvPNS0_19scheduler_operationES10_m
libsioclient_tls.so.1:_ZN4asio6detail28reactive_socket_recv_op_baseINS_17mutable_buffers_1EE10do_performEPNS0_10reactor_opE
libsioclient_tls.so.1:_ZN4asio6detail28reactive_socket_send_op_baseINS0_16prepared_buffersINS_12const_bufferELm64EEEE10do_performEPNS0_10reactor_opE
libsioclient_tls.so.1:_ZN4asio6detail28reactive_socket_send_op_baseINS_15const_buffers_1EE10do_performEPNS0_10reactor_opE
libsioclient_tls.so.1:_ZN4asio6detail31reactive_socket_connect_op_base10do_performEPNS0_10reactor_opE
libsioclient_tls.so.1:_ZN4asio6detail9scheduler16get_default_taskERNS_17execution_contextE
libsioclient_tls.so.1:_ZN4asio9execution6detail17any_executor_base10execute_exINS_10io_context19basic_executor_typeISaIvELm0EEEEEvRKS2_ONS_6detail17executor_functionE
libsioclient_tls.so.1:_ZN4asio9execution6detail17any_executor_base10execute_exINS_10io_context19basic_executor_typeISaIvELm4EEEEEvRKS2_ONS_6detail17executor_functionE
libsioclient_tls.so.1:_ZN4asio9execution6detail17any_executor_base10require_fnINS0_12any_executorIJNS0_12context_as_tIRNS_17execution_contextEEENS1_8blocking7never_tILi0EEENS0_11prefer_onlyINS9_10possibly_tILi0EEEEENSC_INS1_16outstanding_work9tracked_tILi0EEEEENSC_INSG_11untracked_tILi0EEEEENSC_INS1_12relationship6fork_tILi0EEEEENSC_INSN_14continuation_tILi0EEEEEEEENS_10io_context19basic_executor_typeISaIvELm0EEES8_EET_PKvS11_
libsioclient_tls.so.1:_ZN4asio9execution6detail17any_executor_base10require_fnINS0_12any_executorIJNS0_12context_as_tIRNS_17execution_contextEEENS1_8blocking7never_tILi0EEENS0_11prefer_onlyINS9_10possibly_tILi0EEEEENSC_INS1_16outstanding_work9tracked_tILi0EEEEENSC_INSG_11untracked_tILi0EEEEENSC_INS1_12relationship6fork_tILi0EEEEENSC_INSN_14continuation_tILi0EEEEEEEENS_10io_context19basic_executor_typeISaIvELm0EEESB_EET_PKvS11_
libsioclient_tls.so.1:_ZN4asio9execution6detail17any_executor_base10require_fnINS0_12any_executorIJNS0_12context_as_tIRNS_17execution_contextEEENS1_8blocking7never_tILi0EEENS0_11prefer_onlyINS9_10possibly_tILi0EEEEENSC_INS1_16outstanding_work9tracked_tILi0EEEEENSC_INSG_11untracked_tILi0EEEEENSC_INS1_12relationship6fork_tILi0EEEEENSC_INSN_14continuation_tILi0EEEEEEEENS_10io_context19basic_executor_typeISaIvELm0EEESF_EET_PKvS11_
libsioclient_tls.so.1:_ZN4asio9execution6detail17any_executor_base10require_fnINS0_12any_executorIJNS0_12context_as_tIRNS_17execution_contextEEENS1_8blocking7never_tILi0EEENS0_11prefer_onlyINS9_10possibly_tILi0EEEEENSC_INS1_16outstanding_work9tracked_tILi0EEEEENSC_INSG_11untracked_tILi0EEEEENSC_INS1_12relationship6fork_tILi0EEEEENSC_INSN_14continuation_tILi0EEEEEEEENS_10io_context19basic_executor_typeISaIvELm0EEESJ_EET_PKvS11_
libsioclient_tls.so.1:_ZN4asio9execution6detail17any_executor_base10require_fnINS0_12any_executorIJNS0_12context_as_tIRNS_17execution_contextEEENS1_8blocking7never_tILi0EEENS0_11prefer_onlyINS9_10possibly_tILi0EEEEENSC_INS1_16outstanding_work9tracked_tILi0EEEEENSC_INSG_11untracked_tILi0EEEEENSC_INS1_12relationship6fork_tILi0EEEEENSC_INSN_14continuation_tILi0EEEEEEEENS_10io_context19basic_executor_typeISaIvELm0EEESM_EET_PKvS11_
libsioclient_tls.so.1:_ZN4asio9execution6detail17any_executor_base10require_fnINS0_12any_executorIJNS0_12context_as_tIRNS_17execution_contextEEENS1_8blocking7never_tILi0EEENS0_11prefer_onlyINS9_10possibly_tILi0EEEEENSC_INS1_16outstanding_work9tracked_tILi0EEEEENSC_INSG_11untracked_tILi0EEEEENSC_INS1_12relationship6fork_tILi0EEEEENSC_INSN_14continuation_tILi0EEEEEEEENS_10io_context19basic_executor_typeISaIvELm0EEESQ_EET_PKvS11_
libsioclient_tls.so.1:_ZN4asio9execution6detail17any_executor_base10require_fnINS0_12any_executorIJNS0_12context_as_tIRNS_17execution_contextEEENS1_8blocking7never_tILi0EEENS0_11prefer_onlyINS9_10possibly_tILi0EEEEENSC_INS1_16outstanding_work9tracked_tILi0EEEEENSC_INSG_11untracked_tILi0EEEEENSC_INS1_12relationship6fork_tILi0EEEEENSC_INSN_14continuation_tILi0EEEEEEEENS_10io_context19basic_executor_typeISaIvELm0EEEST_EET_PKvS11_
libsioclient_tls.so.1:_ZN4asio9execution6detail17any_executor_base10require_fnINS0_12any_executorIJNS0_12context_as_tIRNS_17execution_contextEEENS1_8blocking7never_tILi0EEENS0_11prefer_onlyINS9_10possibly_tILi0EEEEENSC_INS1_16outstanding_work9tracked_tILi0EEEEENSC_INSG_11untracked_tILi0EEEEENSC_INS1_12relationship6fork_tILi0EEEEENSC_INSN_14continuation_tILi0EEEEEEEENS_10io_context19basic_executor_typeISaIvELm4EEES8_EET_PKvS11_
libsioclient_tls.so.1:_ZN4asio9execution6detail17any_executor_base10require_fnINS0_12any_executorIJNS0_12context_as_tIRNS_17execution_contextEEENS1_8blocking7never_tILi0EEENS0_11prefer_onlyINS9_10possibly_tILi0EEEEENSC_INS1_16outstanding_work9tracked_tILi0EEEEENSC_INSG_11untracked_tILi0EEEEENSC_INS1_12relationship6fork_tILi0EEEEENSC_INSN_14continuation_tILi0EEEEEEEENS_10io_context19basic_executor_typeISaIvELm4EEESB_EET_PKvS11_
libsioclient_tls.so.1:_ZN4asio9execution6detail17any_executor_base10require_fnINS0_12any_executorIJNS0_12context_as_tIRNS_17execution_contextEEENS1_8blocking7never_tILi0EEENS0_11prefer_onlyINS9_10possibly_tILi0EEEEENSC_INS1_16outstanding_work9tracked_tILi0EEEEENSC_INSG_11untracked_tILi0EEEEENSC_INS1_12relationship6fork_tILi0EEEEENSC_INSN_14continuation_tILi0EEEEEEEENS_10io_context19basic_executor_typeISaIvELm4EEESF_EET_PKvS11_
libsioclient_tls.so.1:_ZN4asio9execution6detail17any_executor_base10require_fnINS0_12any_executorIJNS0_12context_as_tIRNS_17execution_contextEEENS1_8blocking7never_tILi0EEENS0_11prefer_onlyINS9_10possibly_tILi0EEEEENSC_INS1_16outstanding_work9tracked_tILi0EEEEENSC_INSG_11untracked_tILi0EEEEENSC_INS1_12relationship6fork_tILi0EEEEENSC_INSN_14continuation_tILi0EEEEEEEENS_10io_context19basic_executor_typeISaIvELm4EEESJ_EET_PKvS11_
libsioclient_tls.so.1:_ZN4asio9execution6detail17any_executor_base10require_fnINS0_12any_executorIJNS0_12context_as_tIRNS_17execution_contextEEENS1_8blocking7never_tILi0EEENS0_11prefer_onlyINS9_10possibly_tILi0EEEEENSC_INS1_16outstanding_work9tracked_tILi0EEEEENSC_INSG_11untracked_tILi0EEEEENSC_INS1_12relationship6fork_tILi0EEEEENSC_INSN_14continuation_tILi0EEEEEEEENS_10io_context19basic_executor_typeISaIvELm4EEESM_EET_PKvS11_
libsioclient_tls.so.1:_ZN4asio9execution6detail17any_executor_base10require_fnINS0_12any_executorIJNS0_12context_as_tIRNS_17execution_contextEEENS1_8blocking7never_tILi0EEENS0_11prefer_onlyINS9_10possibly_tILi0EEEEENSC_INS1_16outstanding_work9tracked_tILi0EEEEENSC_INSG_11untracked_tILi0EEEEENSC_INS1_12relationship6fork_tILi0EEEEENSC_INSN_14continuation_tILi0EEEEEEEENS_10io_context19basic_executor_typeISaIvELm4EEESQ_EET_PKvS11_
libsioclient_tls.so.1:_ZN4asio9execution6detail17any_executor_base10require_fnINS0_12any_executorIJNS0_12context_as_tIRNS_17execution_contextEEENS1_8blocking7never_tILi0EEENS0_11prefer_onlyINS9_10possibly_tILi0EEEEENSC_INS1_16outstanding_work9tracked_tILi0EEEEENSC_INSG_11untracked_tILi0EEEEENSC_INS1_12relationship6fork_tILi0EEEEENSC_INSN_14continuation_tILi0EEEEEEEENS_10io_context19basic_executor_typeISaIvELm4EEEST_EET_PKvS11_
libsioclient_tls.so.1:_ZN4asio9execution6detail17any_executor_base10require_fnINS0_12any_executorIJNS0_12context_as_tIRNS_17execution_contextEEENS1_8blocking7never_tILi0EEENS0_11prefer_onlyINS9_10possibly_tILi0EEEEENSC_INS1_16outstanding_work9tracked_tILi0EEEEENSC_INSG_11untracked_tILi0EEEEENSC_INS1_12relationship6fork_tILi0EEEEENSC_INSN_14continuation_tILi0EEEEEEEEvS8_EET_PKvSX_
libsioclient_tls.so.1:_ZN4asio9execution6detail17any_executor_base10require_fnINS0_12any_executorIJNS0_12context_as_tIRNS_17execution_contextEEENS1_8blocking7never_tILi0EEENS0_11prefer_onlyINS9_10possibly_tILi0EEEEENSC_INS1_16outstanding_work9tracked_tILi0EEEEENSC_INSG_11untracked_tILi0EEEEENSC_INS1_12relationship6fork_tILi0EEEEENSC_INSN_14continuation_tILi0EEEEEEEEvSB_EET_PKvSX_
libsioclient_tls.so.1:_ZN4asio9execution6detail17any_executor_base10require_fnINS0_12any_executorIJNS0_12context_as_tIRNS_17execution_contextEEENS1_8blocking7never_tILi0EEENS0_11prefer_onlyINS9_10possibly_tILi0EEEEENSC_INS1_16outstanding_work9tracked_tILi0EEEEENSC_INSG_11untracked_tILi0EEEEENSC_INS1_12relationship6fork_tILi0EEEEENSC_INSN_14continuation_tILi0EEEEEEEEvSF_EET_PKvSX_
libsioclient_tls.so.1:_ZN4asio9execution6detail17any_executor_base10require_fnINS0_12any_executorIJNS0_12context_as_tIRNS_17execution_contextEEENS1_8blocking7never_tILi0EEENS0_11prefer_onlyINS9_10possibly_tILi0EEEEENSC_INS1_16outstanding_work9tracked_tILi0EEEEENSC_INSG_11untracked_tILi0EEEEENSC_INS1_12relationship6fork_tILi0EEEEENSC_INSN_14continuation_tILi0EEEEEEEEvSJ_EET_PKvSX_
libsioclient_tls.so.1:_ZN4asio9execution6detail17any_executor_base10require_fnINS0_12any_executorIJNS0_12context_as_tIRNS_17execution_contextEEENS1_8blocking7never_tILi0EEENS0_11prefer_onlyINS9_10possibly_tILi0EEEEENSC_INS1_16outstanding_work9tracked_tILi0EEEEENSC_INSG_11untracked_tILi0EEEEENSC_INS1_12relationship6fork_tILi0EEEEENSC_INSN_14continuation_tILi0EEEEEEEEvSM_EET_PKvSX_
libsioclient_tls.so.1:_ZN4asio9execution6detail17any_executor_base10require_fnINS0_12any_executorIJNS0_12context_as_tIRNS_17execution_contextEEENS1_8blocking7never_tILi0EEENS0_11prefer_onlyINS9_10possibly_tILi0EEEEENSC_INS1_16outstanding_work9tracked_tILi0EEEEENSC_INSG_11untracked_tILi0EEEEENSC_INS1_12relationship6fork_tILi0EEEEENSC_INSN_14continuation_tILi0EEEEEEEEvSQ_EET_PKvSX_
libsioclient_tls.so.1:_ZN4asio9execution6detail17any_executor_base10require_fnINS0_12any_executorIJNS0_12context_as_tIRNS_17execution_contextEEENS1_8blocking7never_tILi0EEENS0_11prefer_onlyINS9_10possibly_tILi0EEEEENSC_INS1_16outstanding_work9tracked_tILi0EEEEENSC_INSG_11untracked_tILi0EEEEENSC_INS1_12relationship6fork_tILi0EEEEENSC_INSN_14continuation_tILi0EEEEEEEEvST_EET_PKvSX_
libsioclient_tls.so.1:_ZN4asio9execution6detail17any_executor_base11copy_objectINS_10io_context19basic_executor_typeISaIvELm0EEEEEvRS2_RKS2_
libsioclient_tls.so.1:_ZN4asio9execution6detail17any_executor_base11copy_objectINS_10io_context19basic_executor_typeISaIvELm4EEEEEvRS2_RKS2_
libsioclient_tls.so.1:_ZN4asio9execution6detail17any_executor_base11move_objectINS_10io_context19basic_executor_typeISaIvELm0EEEEEvRS2_S8_
libsioclient_tls.so.1:_ZN4asio9execution6detail17any_executor_base11move_objectINS_10io_context19basic_executor_typeISaIvELm4EEEEEvRS2_S8_
libsioclient_tls.so.1:_ZN4asio9execution6detail17any_executor_base13target_objectINS_10io_context19basic_executor_typeISaIvELm0EEEEEPKvRKS2_
libsioclient_tls.so.1:_ZN4asio9execution6detail17any_executor_base13target_objectINS_10io_context19basic_executor_typeISaIvELm4EEEEEPKvRKS2_
libsioclient_tls.so.1:_ZN4asio9execution6detail17any_executor_base14destroy_objectINS_10io_context19basic_executor_typeISaIvELm0EEEEEvRS2_
libsioclient_tls.so.1:_ZN4asio9execution6detail17any_executor_base14destroy_objectINS_10io_context19basic_executor_typeISaIvELm4EEEEEvRS2_
libsioclient_tls.so.1:_ZN4asio9execution6detail17any_executor_base14target_type_exINS_10io_context19basic_executor_typeISaIvELm0EEEEERKSt9type_infov
libsioclient_tls.so.1:_ZN4asio9execution6detail17any_executor_base14target_type_exINS_10io_context19basic_executor_typeISaIvELm4EEEEERKSt9type_infov
libsioclient_tls.so.1:_ZN4asio9execution6detail17any_executor_base8equal_exINS_10io_context19basic_executor_typeISaIvELm0EEEEEbRKS2_S9_
libsioclient_tls.so.1:_ZN4asio9execution6detail17any_executor_base8equal_exINS_10io_context19basic_executor_typeISaIvELm4EEEEEbRKS2_S9_
libsioclient_tls.so.1:_ZN4asio9execution6detail17any_executor_base8query_fnINS_10io_context19basic_executor_typeISaIvELm0EEENS0_11prefer_onlyINS1_12relationship14continuation_tILi0EEEEEEEvPvPKvSF_
libsioclient_tls.so.1:_ZN4asio9execution6detail17any_executor_base8query_fnINS_10io_context19basic_executor_typeISaIvELm0EEENS0_11prefer_onlyINS1_12relationship6fork_tILi0EEEEEEEvPvPKvSF_
libsioclient_tls.so.1:_ZN4asio9execution6detail17any_executor_base8query_fnINS_10io_context19basic_executor_typeISaIvELm0EEENS0_11prefer_onlyINS1_16outstanding_work11untracked_tILi0EEEEEEEvPvPKvSF_
libsioclient_tls.so.1:_ZN4asio9execution6detail17any_executor_base8query_fnINS_10io_context19basic_executor_typeISaIvELm0EEENS0_11prefer_onlyINS1_16outstanding_work9tracked_tILi0EEEEEEEvPvPKvSF_
libsioclient_tls.so.1:_ZN4asio9execution6detail17any_executor_base8query_fnINS_10io_context19basic_executor_typeISaIvELm0EEENS0_11prefer_onlyINS1_8blocking10possibly_tILi0EEEEEEEvPvPKvSF_
libsioclient_tls.so.1:_ZN4asio9execution6detail17any_executor_base8query_fnINS_10io_context19basic_executor_typeISaIvELm0EEENS0_12context_as_tIRNS_17execution_contextEEEEEvPvPKvSE_
libsioclient_tls.so.1:_ZN4asio9execution6detail17any_executor_base8query_fnINS_10io_context19basic_executor_typeISaIvELm0EEENS1_8blocking7never_tILi0EEEEEvPvPKvSD_
libsioclient_tls.so.1:_ZN4asio9execution6detail17any_executor_base8query_fnINS_10io_context19basic_executor_typeISaIvELm4EEENS0_11prefer_onlyINS1_12relationship14continuation_tILi0EEEEEEEvPvPKvSF_
libsioclient_tls.so.1:_ZN4asio9execution6detail17any_executor_base8query_fnINS_10io_context19basic_executor_typeISaIvELm4EEENS0_11prefer_onlyINS1_12relationship6fork_tILi0EEEEEEEvPvPKvSF_
libsioclient_tls.so.1:_ZN4asio9execution6detail17any_executor_base8query_fnINS_10io_context19basic_executor_typeISaIvELm4EEENS0_11prefer_onlyINS1_16outstanding_work11untracked_tILi0EEEEEEEvPvPKvSF_
libsioclient_tls.so.1:_ZN4asio9execution6detail17any_executor_base8query_fnINS_10io_context19basic_executor_typeISaIvELm4EEENS0_11prefer_onlyINS1_16outstanding_work9tracked_tILi0EEEEEEEvPvPKvSF_
libsioclient_tls.so.1:_ZN4asio9execution6detail17any_executor_base8query_fnINS_10io_context19basic_executor_typeISaIvELm4EEENS0_11prefer_onlyINS1_8blocking10possibly_tILi0EEEEEEEvPvPKvSF_
libsioclient_tls.so.1:_ZN4asio9execution6detail17any_executor_base8query_fnINS_10io_context19basic_executor_typeISaIvELm4EEENS0_12context_as_tIRNS_17execution_contextEEEEEvPvPKvSE_
libsioclient_tls.so.1:_ZN4asio9execution6detail17any_executor_base8query_fnINS_10io_context19basic_executor_typeISaIvELm4EEENS1_8blocking7never_tILi0EEEEEvPvPKvSD_
libsioclient_tls.so.1:_ZN4asio9execution6detail17any_executor_base8query_fnIvNS0_11prefer_onlyINS1_12relationship14continuation_tILi0EEEEEEEvPvPKvSB_
libsioclient_tls.so.1:_ZN4asio9execution6detail17any_executor_base8query_fnIvNS0_11prefer_onlyINS1_12relationship6fork_tILi0EEEEEEEvPvPKvSB_
libsioclient_tls.so.1:_ZN4asio9execution6detail17any_executor_base8query_fnIvNS0_11prefer_onlyINS1_16outstanding_work11untracked_tILi0EEEEEEEvPvPKvSB_
libsioclient_tls.so.1:_ZN4asio9execution6detail17any_executor_base8query_fnIvNS0_11prefer_onlyINS1_16outstanding_work9tracked_tILi0EEEEEEEvPvPKvSB_
libsioclient_tls.so.1:_ZN4asio9execution6detail17any_executor_base8query_fnIvNS0_11prefer_onlyINS1_8blocking10possibly_tILi0EEEEEEEvPvPKvSB_
libsioclient_tls.so.1:_ZN4asio9execution6detail17any_executor_base8query_fnIvNS0_12context_as_tIRNS_17execution_contextEEEEEvPvPKvSA_
libsioclient_tls.so.1:_ZN4asio9execution6detail17any_executor_base8query_fnIvNS1_8blocking7never_tILi0EEEEEvPvPKvS9_
libsioclient_tls.so.1:_ZN4asio9execution6detail17any_executor_base9prefer_fnINS0_12any_executorIJNS0_12context_as_tIRNS_17execution_contextEEENS1_8blocking7never_tILi0EEENS0_11prefer_onlyINS9_10possibly_tILi0EEEEENSC_INS1_16outstanding_work9tracked_tILi0EEEEENSC_INSG_11untracked_tILi0EEEEENSC_INS1_12relationship6fork_tILi0EEEEENSC_INSN_14continuation_tILi0EEEEEEEENS_10io_context19basic_executor_typeISaIvELm0EEES8_EET_PKvS11_
libsioclient_tls.so.1:_ZN4asio9execution6detail17any_executor_base9prefer_fnINS0_12any_executorIJNS0_12context_as_tIRNS_17execution_contextEEENS1_8blocking7never_tILi0EEENS0_11prefer_onlyINS9_10possibly_tILi0EEEEENSC_INS1_16outstanding_work9tracked_tILi0EEEEENSC_INSG_11untracked_tILi0EEEEENSC_INS1_12relationship6fork_tILi0EEEEENSC_INSN_14continuation_tILi0EEEEEEEENS_10io_context19basic_executor_typeISaIvELm0EEESB_EET_PKvS11_
libsioclient_tls.so.1:_ZN4asio9execution6detail17any_executor_base9prefer_fnINS0_12any_executorIJNS0_12context_as_tIRNS_17execution_contextEEENS1_8blocking7never_tILi0EEENS0_11prefer_onlyINS9_10possibly_tILi0EEEEENSC_INS1_16outstanding_work9tracked_tILi0EEEEENSC_INSG_11untracked_tILi0EEEEENSC_INS1_12relationship6fork_tILi0EEEEENSC_INSN_14continuation_tILi0EEEEEEEENS_10io_context19basic_executor_typeISaIvELm0EEESF_EET_PKvS11_
libsioclient_tls.so.1:_ZN4asio9execution6detail17any_executor_base9prefer_fnINS0_12any_executorIJNS0_12context_as_tIRNS_17execution_contextEEENS1_8blocking7never_tILi0EEENS0_11prefer_onlyINS9_10possibly_tILi0EEEEENSC_INS1_16outstanding_work9tracked_tILi0EEEEENSC_INSG_11untracked_tILi0EEEEENSC_INS1_12relationship6fork_tILi0EEEEENSC_INSN_14continuation_tILi0EEEEEEEENS_10io_context19basic_executor_typeISaIvELm0EEESJ_EET_PKvS11_
libsioclient_tls.so.1:_ZN4asio9execution6detail17any_executor_base9prefer_fnINS0_12any_executorIJNS0_12context_as_tIRNS_17execution_contextEEENS1_8blocking7never_tILi0EEENS0_11prefer_onlyINS9_10possibly_tILi0EEEEENSC_INS1_16outstanding_work9tracked_tILi0EEEEENSC_INSG_11untracked_tILi0EEEEENSC_INS1_12relationship6fork_tILi0EEEEENSC_INSN_14continuation_tILi0EEEEEEEENS_10io_context19basic_executor_typeISaIvELm0EEESM_EET_PKvS11_
libsioclient_tls.so.1:_ZN4asio9execution6detail17any_executor_base9prefer_fnINS0_12any_executorIJNS0_12context_as_tIRNS_17execution_contextEEENS1_8blocking7never_tILi0EEENS0_11prefer_onlyINS9_10possibly_tILi0EEEEENSC_INS1_16outstanding_work9tracked_tILi0EEEEENSC_INSG_11untracked_tILi0EEEEENSC_INS1_12relationship6fork_tILi0EEEEENSC_INSN_14continuation_tILi0EEEEEEEENS_10io_context19basic_executor_typeISaIvELm0EEESQ_EET_PKvS11_
libsioclient_tls.so.1:_ZN4asio9execution6detail17any_executor_base9prefer_fnINS0_12any_executorIJNS0_12context_as_tIRNS_17execution_contextEEENS1_8blocking7never_tILi0EEENS0_11prefer_onlyINS9_10possibly_tILi0EEEEENSC_INS1_16outstanding_work9tracked_tILi0EEEEENSC_INSG_11untracked_tILi0EEEEENSC_INS1_12relationship6fork_tILi0EEEEENSC_INSN_14continuation_tILi0EEEEEEEENS_10io_context19basic_executor_typeISaIvELm0EEEST_EET_PKvS11_
libsioclient_tls.so.1:_ZN4asio9execution6detail17any_executor_base9prefer_fnINS0_12any_executorIJNS0_12context_as_tIRNS_17execution_contextEEENS1_8blocking7never_tILi0EEENS0_11prefer_onlyINS9_10possibly_tILi0EEEEENSC_INS1_16outstanding_work9tracked_tILi0EEEEENSC_INSG_11untracked_tILi0EEEEENSC_INS1_12relationship6fork_tILi0EEEEENSC_INSN_14continuation_tILi0EEEEEEEENS_10io_context19basic_executor_typeISaIvELm4EEES8_EET_PKvS11_
libsioclient_tls.so.1:_ZN4asio9execution6detail17any_executor_base9prefer_fnINS0_12any_executorIJNS0_12context_as_tIRNS_17execution_contextEEENS1_8blocking7never_tILi0EEENS0_11prefer_onlyINS9_10possibly_tILi0EEEEENSC_INS1_16outstanding_work9tracked_tILi0EEEEENSC_INSG_11untracked_tILi0EEEEENSC_INS1_12relationship6fork_tILi0EEEEENSC_INSN_14continuation_tILi0EEEEEEEENS_10io_context19basic_executor_typeISaIvELm4EEESB_EET_PKvS11_
libsioclient_tls.so.1:_ZN4asio9execution6detail17any_executor_base9prefer_fnINS0_12any_executorIJNS0_12context_as_tIRNS_17execution_contextEEENS1_8blocking7never_tILi0EEENS0_11prefer_onlyINS9_10possibly_tILi0EEEEENSC_INS1_16outstanding_work9tracked_tILi0EEEEENSC_INSG_11untracked_tILi0EEEEENSC_INS1_12relationship6fork_tILi0EEEEENSC_INSN_14continuation_tILi0EEEEEEEENS_10io_context19basic_executor_typeISaIvELm4EEESF_EET_PKvS11_
libsioclient_tls.so.1:_ZN4asio9execution6detail17any_executor_base9prefer_fnINS0_12any_executorIJNS0_12context_as_tIRNS_17execution_contextEEENS1_8blocking7never_tILi0EEENS0_11prefer_onlyINS9_10possibly_tILi0EEEEENSC_INS1_16outstanding_work9tracked_tILi0EEEEENSC_INSG_11untracked_tILi0EEEEENSC_INS1_12relationship6fork_tILi0EEEEENSC_INSN_14continuation_tILi0EEEEEEEENS_10io_context19basic_executor_typeISaIvELm4EEESJ_EET_PKvS11_
libsioclient_tls.so.1:_ZN4asio9execution6detail17any_executor_base9prefer_fnINS0_12any_executorIJNS0_12context_as_tIRNS_17execution_contextEEENS1_8blocking7never_tILi0EEENS0_11prefer_onlyINS9_10possibly_tILi0EEEEENSC_INS1_16outstanding_work9tracked_tILi0EEEEENSC_INSG_11untracked_tILi0EEEEENSC_INS1_12relationship6fork_tILi0EEEEENSC_INSN_14continuation_tILi0EEEEEEEENS_10io_context19basic_executor_typeISaIvELm4EEESM_EET_PKvS11_
libsioclient_tls.so.1:_ZN4asio9execution6detail17any_executor_base9prefer_fnINS0_12any_executorIJNS0_12context_as_tIRNS_17execution_contextEEENS1_8blocking7never_tILi0EEENS0_11prefer_onlyINS9_10possibly_tILi0EEEEENSC_INS1_16outstanding_work9tracked_tILi0EEEEENSC_INSG_11untracked_tILi0EEEEENSC_INS1_12relationship6fork_tILi0EEEEENSC_INSN_14continuation_tILi0EEEEEEEENS_10io_context19basic_executor_typeISaIvELm4EEESQ_EET_PKvS11_
libsioclient_tls.so.1:_ZN4asio9execution6detail17any_executor_base9prefer_fnINS0_12any_executorIJNS0_12context_as_tIRNS_17execution_contextEEENS1_8blocking7never_tILi0EEENS0_11prefer_onlyINS9_10possibly_tILi0EEEEENSC_INS1_16outstanding_work9tracked_tILi0EEEEENSC_INSG_11untracked_tILi0EEEEENSC_INS1_12relationship6fork_tILi0EEEEENSC_INSN_14continuation_tILi0EEEEEEEENS_10io_context19basic_executor_typeISaIvELm4EEEST_EET_PKvS11_
libsioclient_tls.so.1:_ZN4asio9execution6detail17any_executor_base9prefer_fnINS0_12any_executorIJNS0_12context_as_tIRNS_17execution_contextEEENS1_8blocking7never_tILi0EEENS0_11prefer_onlyINS9_10possibly_tILi0EEEEENSC_INS1_16outstanding_work9tracked_tILi0EEEEENSC_INSG_11untracked_tILi0EEEEENSC_INS1_12relationship6fork_tILi0EEEEENSC_INSN_14continuation_tILi0EEEEEEEEvS8_EET_PKvSX_
libsioclient_tls.so.1:_ZN4asio9execution6detail17any_executor_base9prefer_fnINS0_12any_executorIJNS0_12context_as_tIRNS_17execution_contextEEENS1_8blocking7never_tILi0EEENS0_11prefer_onlyINS9_10possibly_tILi0EEEEENSC_INS1_16outstanding_work9tracked_tILi0EEEEENSC_INSG_11untracked_tILi0EEEEENSC_INS1_12relationship6fork_tILi0EEEEENSC_INSN_14continuation_tILi0EEEEEEEEvSB_EET_PKvSX_
libsioclient_tls.so.1:_ZN4asio9execution6detail17any_executor_base9prefer_fnINS0_12any_executorIJNS0_12context_as_tIRNS_17execution_contextEEENS1_8blocking7never_tILi0EEENS0_11prefer_onlyINS9_10possibly_tILi0EEEEENSC_INS1_16outstanding_work9tracked_tILi0EEEEENSC_INSG_11untracked_tILi0EEEEENSC_INS1_12relationship6fork_tILi0EEEEENSC_INSN_14continuation_tILi0EEEEEEEEvSF_EET_PKvSX_
libsioclient_tls.so.1:_ZN4asio9execution6detail17any_executor_base9prefer_fnINS0_12any_executorIJNS0_12context_as_tIRNS_17execution_contextEEENS1_8blocking7never_tILi0EEENS0_11prefer_onlyINS9_10possibly_tILi0EEEEENSC_INS1_16outstanding_work9tracked_tILi0EEEEENSC_INSG_11untracked_tILi0EEEEENSC_INS1_12relationship6fork_tILi0EEEEENSC_INSN_14continuation_tILi0EEEEEEEEvSJ_EET_PKvSX_
libsioclient_tls.so.1:_ZN4asio9execution6detail17any_executor_base9prefer_fnINS0_12any_executorIJNS0_12context_as_tIRNS_17execution_contextEEENS1_8blocking7never_tILi0EEENS0_11prefer_onlyINS9_10possibly_tILi0EEEEENSC_INS1_16outstanding_work9tracked_tILi0EEEEENSC_INSG_11untracked_tILi0EEEEENSC_INS1_12relationship6fork_tILi0EEEEENSC_INSN_14continuation_tILi0EEEEEEEEvSM_EET_PKvSX_
libsioclient_tls.so.1:_ZN4asio9execution6detail17any_executor_base9prefer_fnINS0_12any_executorIJNS0_12context_as_tIRNS_17execution_contextEEENS1_8blocking7never_tILi0EEENS0_11prefer_onlyINS9_10possibly_tILi0EEEEENSC_INS1_16outstanding_work9tracked_tILi0EEEEENSC_INSG_11untracked_tILi0EEEEENSC_INS1_12relationship6fork_tILi0EEEEENSC_INSN_14continuation_tILi0EEEEEEEEvSQ_EET_PKvSX_
libsioclient_tls.so.1:_ZN4asio9execution6detail17any_executor_base9prefer_fnINS0_12any_executorIJNS0_12context_as_tIRNS_17execution_contextEEENS1_8blocking7never_tILi0EEENS0_11prefer_onlyINS9_10possibly_tILi0EEEEENSC_INS1_16outstanding_work9tracked_tILi0EEEEENSC_INSG_11untracked_tILi0EEEEENSC_INS1_12relationship6fork_tILi0EEEEENSC_INSN_14continuation_tILi0EEEEEEEEvST_EET_PKvSX_
libsioclient_tls.so.1:_ZNK3sio11client_impl10next_delayEv
libsioclient_tls.so.1:_ZNK3sio14packet_manager6encodeERNS_6packetERKSt8functionIFvbRKSt10shared_ptrIKNSt7__cxx1112basic_stringIcSt11char_traitsIcESaIcEEEEEE
libsioclient_tls.so.1:_ZNK3sio5event11get_messageEv
libsioclient_tls.so.1:_ZNK3sio5event12get_messagesEv
libsioclient_tls.so.1:_ZNK3sio5event15get_ack_messageEv
libsioclient_tls.so.1:_ZNK3sio5event7get_nspB5cxx11Ev
libsioclient_tls.so.1:_ZNK3sio5event8get_nameB5cxx11Ev
libsioclient_tls.so.1:_ZNK3sio5event8need_ackEv
libsioclient_tls.so.1:_ZNK3sio6client13get_sessionidB5cxx11Ev
libsioclient_tls.so.1:_ZNK3sio6client6openedEv
libsioclient_tls.so.1:_ZNK3sio6packet11get_messageEv
libsioclient_tls.so.1:_ZNK3sio6packet11get_pack_idEv
libsioclient_tls.so.1:_ZNK3sio6packet7get_nspB5cxx11Ev
libsioclient_tls.so.1:_ZNK3sio6packet8get_typeEv
libsioclient_tls.so.1:_ZNK3sio6packet9get_frameEv
libsioclient_tls.so.1:_ZNK3sio6socket13get_namespaceB5cxx11Ev
libsioclient_tls.so.1:_ZNK9rapidjson11ParseResult7IsErrorEv
libsioclient_tls.so.1:_ZNSt15__exception_ptr12__dest_thunkIN4asio19multiple_exceptionsEEEvPv
libsioclient_tls.so.1:_ZNSt17_Function_handlerIFSt10shared_ptrIN4asio3ssl7contextEESt8weak_ptrIvEESt5_BindIFMN3sio11client_implEFS4_S6_EPSA_St12_PlaceholderILi1EEEEE10_M_managerERSt9_Any_dataRKSJ_St18_Manager_operation
libsioclient_tls.so.1:_ZNSt17_Function_handlerIFSt10shared_ptrIN4asio3ssl7contextEESt8weak_ptrIvEESt5_BindIFMN3sio11client_implEFS4_S6_EPSA_St12_PlaceholderILi1EEEEE9_M_invokeERKSt9_Any_dataOS6_
libsioclient_tls.so.1:_ZNSt17_Function_handlerIFvRKN3sio6packetEESt5_BindIFMNS0_11client_implEFvS3_EPS6_St12_PlaceholderILi1EEEEE10_M_managerERSt9_Any_dataRKSF_St18_Manager_operation
libsioclient_tls.so.1:_ZNSt17_Function_handlerIFvRKN3sio6packetEESt5_BindIFMNS0_11client_implEFvS3_EPS6_St12_PlaceholderILi1EEEEE9_M_invokeERKSt9_Any_dataS3_
libsioclient_tls.so.1:_ZNSt17_Function_handlerIFvRKSt10error_codeESt5_BindIFMN11websocketpp10connectionINS5_6config15asio_tls_clientEEEFvNS9_16terminate_statusES2_ESt10shared_ptrIS9_ESA_St12_PlaceholderILi1EEEEE10_M_managerERSt9_Any_dataRKSK_St18_Manager_operation
libsioclient_tls.so.1:_ZNSt17_Function_handlerIFvRKSt10error_codeESt5_BindIFMN11websocketpp10connectionINS5_6config15asio_tls_clientEEEFvNS9_16terminate_statusES2_ESt10shared_ptrIS9_ESA_St12_PlaceholderILi1EEEEE9_M_invokeERKSt9_Any_dataS2_
libsioclient_tls.so.1:_ZNSt17_Function_handlerIFvRKSt10error_codeESt5_BindIFMN11websocketpp10connectionINS5_6config15asio_tls_clientEEEFvS2_EPS9_St12_PlaceholderILi1EEEEE10_M_managerERSt9_Any_dataRKSI_St18_Manager_operation
libsioclient_tls.so.1:_ZNSt17_Function_handlerIFvRKSt10error_codeESt5_BindIFMN11websocketpp10connectionINS5_6config15asio_tls_clientEEEFvS2_EPS9_St12_PlaceholderILi1EEEEE9_M_invokeERKSt9_Any_dataS2_
libsioclient_tls.so.1:_ZNSt17_Function_handlerIFvRKSt10error_codeESt5_BindIFMN11websocketpp10connectionINS5_6config15asio_tls_clientEEEFvS2_ESt10shared_ptrIS9_ESt12_PlaceholderILi1EEEEE10_M_managerERSt9_Any_dataRKSJ_St18_Manager_operation
libsioclient_tls.so.1:_ZNSt17_Function_handlerIFvRKSt10error_codeESt5_BindIFMN11websocketpp10connectionINS5_6config15asio_tls_clientEEEFvS2_ESt10shared_ptrIS9_ESt12_PlaceholderILi1EEEEE9_M_invokeERKSt9_Any_dataS2_
libsioclient_tls.so.1:_ZNSt17_Function_handlerIFvRKSt10error_codeESt5_BindIFMN11websocketpp6clientINS5_6config15asio_tls_clientEEEFvSt10shared_ptrINS5_10connectionIS8_EEES2_EPS9_SD_St12_PlaceholderILi1EEEEE10_M_managerERSt9_Any_dataRKSM_St18_Manager_operation
libsioclient_tls.so.1:_ZNSt17_Function_handlerIFvRKSt10error_codeESt5_BindIFMN11websocketpp6clientINS5_6config15asio_tls_clientEEEFvSt10shared_ptrINS5_10connectionIS8_EEES2_EPS9_SD_St12_PlaceholderILi1EEEEE9_M_invokeERKSt9_Any_dataS2_
libsioclient_tls.so.1:_ZNSt17_Function_handlerIFvRKSt10error_codeESt5_BindIFMN11websocketpp9transport4asio10connectionINS5_6config15asio_tls_client16transport_configEEEFvSt10shared_ptrIN4asio20basic_waitable_timerINSt6chrono3_V212steady_clockENSE_11wait_traitsISI_EENSE_15any_io_executorEEEESt8functionIS3_ES2_ESD_ISC_ESN_SP_St12_PlaceholderILi1EEEEE10_M_managerERSt9_Any_dataRKSY_St18_Manager_operation
libsioclient_tls.so.1:_ZNSt17_Function_handlerIFvRKSt10error_codeESt5_BindIFMN11websocketpp9transport4asio10connectionINS5_6config15asio_tls_client16transport_configEEEFvSt10shared_ptrIN4asio20basic_waitable_timerINSt6chrono3_V212steady_clockENSE_11wait_traitsISI_EENSE_15any_io_executorEEEESt8functionIS3_ES2_ESD_ISC_ESN_SP_St12_PlaceholderILi1EEEEE9_M_invokeERKSt9_Any_dataS2_
libsioclient_tls.so.1:_ZNSt17_Function_handlerIFvRKSt10error_codeESt5_BindIFMN11websocketpp9transport4asio10connectionINS5_6config15asio_tls_client16transport_configEEEFvSt8functionIS3_ES2_ESt10shared_ptrISC_ESE_St12_PlaceholderILi1EEEEE10_M_managerERSt9_Any_dataRKSO_St18_Manager_operation
libsioclient_tls.so.1:_ZNSt17_Function_handlerIFvRKSt10error_codeESt5_BindIFMN11websocketpp9transport4asio10connectionINS5_6config15asio_tls_client16transport_configEEEFvSt8functionIS3_ES2_ESt10shared_ptrISC_ESE_St12_PlaceholderILi1EEEEE9_M_invokeERKSt9_Any_dataS2_
libsioclient_tls.so.1:_ZNSt17_Function_handlerIFvRKSt10error_codeESt5_BindIFMN11websocketpp9transport4asio8endpointINS5_6config15asio_tls_client16transport_configEEEFvSt10shared_ptrIN4asio20basic_waitable_timerINSt6chrono3_V212steady_clockENSE_11wait_traitsISI_EENSE_15any_io_executorEEEESt8functionIS3_ES2_EPSC_SN_SP_St12_PlaceholderILi1EEEEE10_M_managerERSt9_Any_dataRKSY_St18_Manager_operation
libsioclient_tls.so.1:_ZNSt17_Function_handlerIFvRKSt10error_codeESt5_BindIFMN11websocketpp9transport4asio8endpointINS5_6config15asio_tls_client16transport_configEEEFvSt10shared_ptrIN4asio20basic_waitable_timerINSt6chrono3_V212steady_clockENSE_11wait_traitsISI_EENSE_15any_io_executorEEEESt8functionIS3_ES2_EPSC_SN_SP_St12_PlaceholderILi1EEEEE9_M_invokeERKSt9_Any_dataS2_
libsioclient_tls.so.1:_ZNSt17_Function_handlerIFvRKSt10error_codeESt5_BindIFMN11websocketpp9transport4asio8endpointINS5_6config15asio_tls_client16transport_configEEEFvSt10shared_ptrINS7_10connectionISB_EEESD_IN4asio20basic_waitable_timerINSt6chrono3_V212steady_clockENSH_11wait_traitsISL_EENSH_15any_io_executorEEEESt8functionIS3_ES2_EPSC_SG_SQ_SS_St12_PlaceholderILi1EEEEE10_M_managerERSt9_Any_dataRKS11_St18_Manager_operation
libsioclient_tls.so.1:_ZNSt17_Function_handlerIFvRKSt10error_codeESt5_BindIFMN11websocketpp9transport4asio8endpointINS5_6config15asio_tls_client16transport_configEEEFvSt10shared_ptrINS7_10connectionISB_EEESD_IN4asio20basic_waitable_timerINSt6chrono3_V212steady_clockENSH_11wait_traitsISL_EENSH_15any_io_executorEEEESt8functionIS3_ES2_EPSC_SG_SQ_SS_St12_PlaceholderILi1EEEEE9_M_invokeERKSt9_Any_dataS2_
libsioclient_tls.so.1:_ZNSt17_Function_handlerIFvRKSt10error_codemESt5_BindIFMN11websocketpp10connectionINS5_6config15asio_tls_clientEEEFvS2_mEPS9_St12_PlaceholderILi1EESD_ILi2EEEEE10_M_managerERSt9_Any_dataRKSJ_St18_Manager_operation
libsioclient_tls.so.1:_ZNSt17_Function_handlerIFvRKSt10error_codemESt5_BindIFMN11websocketpp10connectionINS5_6config15asio_tls_clientEEEFvS2_mEPS9_St12_PlaceholderILi1EESD_ILi2EEEEE9_M_invokeERKSt9_Any_dataS2_Om
libsioclient_tls.so.1:_ZNSt17_Function_handlerIFvRKSt10error_codemESt5_BindIFMN11websocketpp10connectionINS5_6config15asio_tls_clientEEEFvS2_mESt10shared_ptrIS9_ESt12_PlaceholderILi1EESE_ILi2EEEEE10_M_managerERSt9_Any_dataRKSK_St18_Manager_operation
libsioclient_tls.so.1:_ZNSt17_Function_handlerIFvRKSt10error_codemESt5_BindIFMN11websocketpp10connectionINS5_6config15asio_tls_clientEEEFvS2_mESt10shared_ptrIS9_ESt12_PlaceholderILi1EESE_ILi2EEEEE9_M_invokeERKSt9_Any_dataS2_Om
libsioclient_tls.so.1:_ZNSt17_Function_handlerIFvRN3sio5eventEESt5_BindIFPFvRKSt8functionIFvRKNSt7__cxx1112basic_stringIcSt11char_traitsIcESaIcEEERKSt10shared_ptrINS0_7messageEEbRNSF_4listEEES2_ESM_St12_PlaceholderILi1EEEEE10_M_managerERSt9_Any_dataRKSW_St18_Manager_operation
libsioclient_tls.so.1:_ZNSt17_Function_handlerIFvRN3sio5eventEESt5_BindIFPFvRKSt8functionIFvRKNSt7__cxx1112basic_stringIcSt11char_traitsIcESaIcEEERKSt10shared_ptrINS0_7messageEEbRNSF_4listEEES2_ESM_St12_PlaceholderILi1EEEEE9_M_invokeERKSt9_Any_dataS2_
libsioclient_tls.so.1:_ZNSt17_Function_handlerIFvSt8weak_ptrIvEESt5_BindIFMN3sio11client_implEFvS1_EPS5_St12_PlaceholderILi1EEEEE10_M_managerERSt9_Any_dataRKSE_St18_Manager_operation
libsioclient_tls.so.1:_ZNSt17_Function_handlerIFvSt8weak_ptrIvEESt5_BindIFMN3sio11client_implEFvS1_EPS5_St12_PlaceholderILi1EEEEE9_M_invokeERKSt9_Any_dataOS1_
libsioclient_tls.so.1:_ZNSt17_Function_handlerIFvSt8weak_ptrIvESt10shared_ptrIN11websocketpp14message_buffer7messageINS4_5alloc15con_msg_managerEEEEESt5_BindIFMN3sio11client_implEFvS1_S9_EPSD_St12_PlaceholderILi1EESH_ILi2EEEEE10_M_managerERSt9_Any_dataRKSN_St18_Manager_operation
libsioclient_tls.so.1:_ZNSt17_Function_handlerIFvSt8weak_ptrIvESt10shared_ptrIN11websocketpp14message_buffer7messageINS4_5alloc15con_msg_managerEEEEESt5_BindIFMN3sio11client_implEFvS1_S9_EPSD_St12_PlaceholderILi1EESH_ILi2EEEEE9_M_invokeERKSt9_Any_dataOS1_OS9_
libsioclient_tls.so.1:_ZNSt17_Function_handlerIFvbRKSt10shared_ptrIKNSt7__cxx1112basic_stringIcSt11char_traitsIcESaIcEEEEESt5_BindIFMN3sio11client_implEFvbSA_EPSE_St12_PlaceholderILi1EESI_ILi2EEEEE10_M_managerERSt9_Any_dataRKSO_St18_Manager_operation
libsioclient_tls.so.1:_ZNSt17_Function_handlerIFvbRKSt10shared_ptrIKNSt7__cxx1112basic_stringIcSt11char_traitsIcESaIcEEEEESt5_BindIFMN3sio11client_implEFvbSA_EPSE_St12_PlaceholderILi1EESI_ILi2EEEEE9_M_invokeERKSt9_Any_dataObSA_
libsioclient_tls.so.1:_ZNSt17_Function_handlerIFvvESt5_BindIFMN11websocketpp10connectionINS2_6config15asio_tls_clientEEEFvvESt10shared_ptrIS6_EEEE10_M_managerERSt9_Any_dataRKSE_St18_Manager_operation
libsioclient_tls.so.1:_ZNSt17_Function_handlerIFvvESt5_BindIFMN11websocketpp10connectionINS2_6config15asio_tls_clientEEEFvvESt10shared_ptrIS6_EEEE9_M_invokeERKSt9_Any_data
libsioclient_tls.so.1:_ZNSt6thread24_M_thread_deps_never_runEv
libsioclient_tls.so.1:asio_detail_posix_thread_function
